
Cube.elf:     file format elf32-littlearm

Sections:
Idx Name          Size      VMA       LMA       File off  Algn
  0 .isr_vector   0000010c  08000000  08000000  00010000  2**0
                  CONTENTS, ALLOC, LOAD, READONLY, DATA
  1 .text         00004054  0800010c  0800010c  0001010c  2**2
                  CONTENTS, ALLOC, LOAD, READONLY, CODE
  2 .rodata       000004b0  08004160  08004160  00014160  2**2
                  CONTENTS, ALLOC, LOAD, READONLY, DATA
  3 .ARM.extab    00000000  08004610  08004610  000200d8  2**0
                  CONTENTS
  4 .ARM          00000000  08004610  08004610  000200d8  2**0
                  CONTENTS
  5 .preinit_array 00000000  08004610  08004610  000200d8  2**0
                  CONTENTS, ALLOC, LOAD, DATA
  6 .init_array   00000008  08004610  08004610  00014610  2**2
                  CONTENTS, ALLOC, LOAD, DATA
  7 .fini_array   00000004  08004618  08004618  00014618  2**2
                  CONTENTS, ALLOC, LOAD, DATA
  8 .data         000000d8  20000000  0800461c  00020000  2**2
                  CONTENTS, ALLOC, LOAD, DATA
  9 .bss          000001e0  200000d8  080046f4  000200d8  2**2
                  ALLOC
 10 ._user_heap_stack 00000c00  200002b8  080046f4  000202b8  2**0
                  ALLOC
 11 .ARM.attributes 00000029  00000000  00000000  000200d8  2**0
                  CONTENTS, READONLY
 12 .comment      00000053  00000000  00000000  00020101  2**0
                  CONTENTS, READONLY
 13 .debug_frame  00000b28  00000000  00000000  00020154  2**2
                  CONTENTS, READONLY, DEBUGGING, OCTETS
 14 .stab         000000cc  00000000  00000000  00020c7c  2**2
                  CONTENTS, READONLY, DEBUGGING
 15 .stabstr      000001b9  00000000  00000000  00020d48  2**0
                  CONTENTS, READONLY, DEBUGGING

Disassembly of section .text:

0800010c <__do_global_dtors_aux>:
 800010c:	b510      	push	{r4, lr}
 800010e:	4c05      	ldr	r4, [pc, #20]	; (8000124 <__do_global_dtors_aux+0x18>)
 8000110:	7823      	ldrb	r3, [r4, #0]
 8000112:	b933      	cbnz	r3, 8000122 <__do_global_dtors_aux+0x16>
 8000114:	4b04      	ldr	r3, [pc, #16]	; (8000128 <__do_global_dtors_aux+0x1c>)
 8000116:	b113      	cbz	r3, 800011e <__do_global_dtors_aux+0x12>
 8000118:	4804      	ldr	r0, [pc, #16]	; (800012c <__do_global_dtors_aux+0x20>)
 800011a:	f3af 8000 	nop.w
 800011e:	2301      	movs	r3, #1
 8000120:	7023      	strb	r3, [r4, #0]
 8000122:	bd10      	pop	{r4, pc}
 8000124:	200000d8 	.word	0x200000d8
 8000128:	00000000 	.word	0x00000000
 800012c:	08004148 	.word	0x08004148

08000130 <frame_dummy>:
 8000130:	b508      	push	{r3, lr}
 8000132:	4b03      	ldr	r3, [pc, #12]	; (8000140 <frame_dummy+0x10>)
 8000134:	b11b      	cbz	r3, 800013e <frame_dummy+0xe>
 8000136:	4903      	ldr	r1, [pc, #12]	; (8000144 <frame_dummy+0x14>)
 8000138:	4803      	ldr	r0, [pc, #12]	; (8000148 <frame_dummy+0x18>)
 800013a:	f3af 8000 	nop.w
 800013e:	bd08      	pop	{r3, pc}
 8000140:	00000000 	.word	0x00000000
 8000144:	200000dc 	.word	0x200000dc
 8000148:	08004148 	.word	0x08004148

0800014c <strlen>:
 800014c:	4603      	mov	r3, r0
 800014e:	f813 2b01 	ldrb.w	r2, [r3], #1
 8000152:	2a00      	cmp	r2, #0
 8000154:	d1fb      	bne.n	800014e <strlen+0x2>
 8000156:	1a18      	subs	r0, r3, r0
 8000158:	3801      	subs	r0, #1
 800015a:	4770      	bx	lr

0800015c <_ZN4Cube9lightCubeEv>:
 800015c:	f890 3049 	ldrb.w	r3, [r0, #73]	; 0x49
 8000160:	b1ab      	cbz	r3, 800018e <_ZN4Cube9lightCubeEv+0x32>
 8000162:	22ff      	movs	r2, #255	; 0xff
 8000164:	f100 0308 	add.w	r3, r0, #8
 8000168:	f100 0110 	add.w	r1, r0, #16
 800016c:	f803 2b01 	strb.w	r2, [r3], #1
 8000170:	4299      	cmp	r1, r3
 8000172:	71da      	strb	r2, [r3, #7]
 8000174:	73da      	strb	r2, [r3, #15]
 8000176:	75da      	strb	r2, [r3, #23]
 8000178:	77da      	strb	r2, [r3, #31]
 800017a:	f883 2027 	strb.w	r2, [r3, #39]	; 0x27
 800017e:	f883 202f 	strb.w	r2, [r3, #47]	; 0x2f
 8000182:	f883 2037 	strb.w	r2, [r3, #55]	; 0x37
 8000186:	d1f1      	bne.n	800016c <_ZN4Cube9lightCubeEv+0x10>
 8000188:	2300      	movs	r3, #0
 800018a:	f880 3049 	strb.w	r3, [r0, #73]	; 0x49
 800018e:	4770      	bx	lr

08000190 <_ZN4Cube20constChangeBrightnesEv>:
 8000190:	b510      	push	{r4, lr}
 8000192:	f890 3049 	ldrb.w	r3, [r0, #73]	; 0x49
 8000196:	4604      	mov	r4, r0
 8000198:	b133      	cbz	r3, 80001a8 <_ZN4Cube20constChangeBrightnesEv+0x18>
 800019a:	2300      	movs	r3, #0
 800019c:	f880 3049 	strb.w	r3, [r0, #73]	; 0x49
 80001a0:	f8a0 306c 	strh.w	r3, [r0, #108]	; 0x6c
 80001a4:	f880 306e 	strb.w	r3, [r0, #110]	; 0x6e
 80001a8:	f001 f958 	bl	800145c <HAL_GetTick>
 80001ac:	6e63      	ldr	r3, [r4, #100]	; 0x64
 80001ae:	1ac0      	subs	r0, r0, r3
 80001b0:	6ea3      	ldr	r3, [r4, #104]	; 0x68
 80001b2:	4298      	cmp	r0, r3
 80001b4:	d90c      	bls.n	80001d0 <_ZN4Cube20constChangeBrightnesEv+0x40>
 80001b6:	f001 f951 	bl	800145c <HAL_GetTick>
 80001ba:	f894 306e 	ldrb.w	r3, [r4, #110]	; 0x6e
 80001be:	6660      	str	r0, [r4, #100]	; 0x64
 80001c0:	b13b      	cbz	r3, 80001d2 <_ZN4Cube20constChangeBrightnesEv+0x42>
 80001c2:	2b01      	cmp	r3, #1
 80001c4:	d012      	beq.n	80001ec <_ZN4Cube20constChangeBrightnesEv+0x5c>
 80001c6:	f04f 4380 	mov.w	r3, #1073741824	; 0x40000000
 80001ca:	f8b4 206c 	ldrh.w	r2, [r4, #108]	; 0x6c
 80001ce:	641a      	str	r2, [r3, #64]	; 0x40
 80001d0:	bd10      	pop	{r4, pc}
 80001d2:	f640 72ff 	movw	r2, #4095	; 0xfff
 80001d6:	f8b4 306c 	ldrh.w	r3, [r4, #108]	; 0x6c
 80001da:	3301      	adds	r3, #1
 80001dc:	b29b      	uxth	r3, r3
 80001de:	4293      	cmp	r3, r2
 80001e0:	f8a4 306c 	strh.w	r3, [r4, #108]	; 0x6c
 80001e4:	bf04      	itt	eq
 80001e6:	2301      	moveq	r3, #1
 80001e8:	f884 306e 	strbeq.w	r3, [r4, #110]	; 0x6e
 80001ec:	f8b4 306c 	ldrh.w	r3, [r4, #108]	; 0x6c
 80001f0:	3b01      	subs	r3, #1
 80001f2:	b29b      	uxth	r3, r3
 80001f4:	f8a4 306c 	strh.w	r3, [r4, #108]	; 0x6c
 80001f8:	2b00      	cmp	r3, #0
 80001fa:	d1e4      	bne.n	80001c6 <_ZN4Cube20constChangeBrightnesEv+0x36>
 80001fc:	f884 306e 	strb.w	r3, [r4, #110]	; 0x6e
 8000200:	e7e1      	b.n	80001c6 <_ZN4Cube20constChangeBrightnesEv+0x36>
	...

08000204 <_ZN4Cube10printFrameEv>:
 8000204:	b5f0      	push	{r4, r5, r6, r7, lr}
 8000206:	4d2c      	ldr	r5, [pc, #176]	; (80002b8 <_ZN4Cube10printFrameEv+0xb4>)
 8000208:	2407      	movs	r4, #7
 800020a:	2680      	movs	r6, #128	; 0x80
 800020c:	462b      	mov	r3, r5
 800020e:	2701      	movs	r7, #1
 8000210:	3048      	adds	r0, #72	; 0x48
 8000212:	6929      	ldr	r1, [r5, #16]
 8000214:	fa46 f204 	asr.w	r2, r6, r4
 8000218:	f441 3100 	orr.w	r1, r1, #131072	; 0x20000
 800021c:	43d2      	mvns	r2, r2
 800021e:	6129      	str	r1, [r5, #16]
 8000220:	2100      	movs	r1, #0
 8000222:	b2d2      	uxtb	r2, r2
 8000224:	fa42 fe01 	asr.w	lr, r2, r1
 8000228:	f01e 0f01 	tst.w	lr, #1
 800022c:	bf0c      	ite	eq
 800022e:	f44f 3e80 	moveq.w	lr, #65536	; 0x10000
 8000232:	f04f 0e01 	movne.w	lr, #1
 8000236:	f8d3 c010 	ldr.w	ip, [r3, #16]
 800023a:	3101      	adds	r1, #1
 800023c:	f44c 2c80 	orr.w	ip, ip, #262144	; 0x40000
 8000240:	f8c3 c010 	str.w	ip, [r3, #16]
 8000244:	f8d3 c010 	ldr.w	ip, [r3, #16]
 8000248:	2908      	cmp	r1, #8
 800024a:	ea4c 0c0e 	orr.w	ip, ip, lr
 800024e:	f8c3 c010 	str.w	ip, [r3, #16]
 8000252:	f8d3 c010 	ldr.w	ip, [r3, #16]
 8000256:	f04c 0c04 	orr.w	ip, ip, #4
 800025a:	f8c3 c010 	str.w	ip, [r3, #16]
 800025e:	d1e1      	bne.n	8000224 <_ZN4Cube10printFrameEv+0x20>
 8000260:	f1a0 0108 	sub.w	r1, r0, #8
 8000264:	f04f 0c00 	mov.w	ip, #0
 8000268:	691a      	ldr	r2, [r3, #16]
 800026a:	f442 2280 	orr.w	r2, r2, #262144	; 0x40000
 800026e:	611a      	str	r2, [r3, #16]
 8000270:	780a      	ldrb	r2, [r1, #0]
 8000272:	f8d3 e010 	ldr.w	lr, [r3, #16]
 8000276:	fa42 f20c 	asr.w	r2, r2, ip
 800027a:	f002 0201 	and.w	r2, r2, #1
 800027e:	0112      	lsls	r2, r2, #4
 8000280:	fa07 f202 	lsl.w	r2, r7, r2
 8000284:	ea42 020e 	orr.w	r2, r2, lr
 8000288:	611a      	str	r2, [r3, #16]
 800028a:	691a      	ldr	r2, [r3, #16]
 800028c:	f10c 0c01 	add.w	ip, ip, #1
 8000290:	f042 0204 	orr.w	r2, r2, #4
 8000294:	f1bc 0f08 	cmp.w	ip, #8
 8000298:	611a      	str	r2, [r3, #16]
 800029a:	d1e5      	bne.n	8000268 <_ZN4Cube10printFrameEv+0x64>
 800029c:	3101      	adds	r1, #1
 800029e:	4281      	cmp	r1, r0
 80002a0:	d1e0      	bne.n	8000264 <_ZN4Cube10printFrameEv+0x60>
 80002a2:	691a      	ldr	r2, [r3, #16]
 80002a4:	3c01      	subs	r4, #1
 80002a6:	f042 0202 	orr.w	r2, r2, #2
 80002aa:	611a      	str	r2, [r3, #16]
 80002ac:	1c62      	adds	r2, r4, #1
 80002ae:	f1a1 0008 	sub.w	r0, r1, #8
 80002b2:	d1ae      	bne.n	8000212 <_ZN4Cube10printFrameEv+0xe>
 80002b4:	bdf0      	pop	{r4, r5, r6, r7, pc}
 80002b6:	bf00      	nop
 80002b8:	40010800 	.word	0x40010800

080002bc <_ZN4Cube8setSpeedEs>:
 80002bc:	6681      	str	r1, [r0, #104]	; 0x68
 80002be:	4770      	bx	lr

080002c0 <_ZN4Cube8getSpeedEv>:
 80002c0:	6e80      	ldr	r0, [r0, #104]	; 0x68
 80002c2:	4770      	bx	lr

080002c4 <_ZN4Cube7getModeEv>:
 80002c4:	f890 0048 	ldrb.w	r0, [r0, #72]	; 0x48
 80002c8:	4770      	bx	lr

080002ca <_ZN4Cube6setDotEhhhh>:
 80002ca:	b510      	push	{r4, lr}
 80002cc:	2480      	movs	r4, #128	; 0x80
 80002ce:	f1c3 0307 	rsb	r3, r3, #7
 80002d2:	eb00 00c3 	add.w	r0, r0, r3, lsl #3
 80002d6:	4401      	add	r1, r0
 80002d8:	7a0b      	ldrb	r3, [r1, #8]
 80002da:	f89d 0008 	ldrb.w	r0, [sp, #8]
 80002de:	fa44 f202 	asr.w	r2, r4, r2
 80002e2:	ea23 0302 	bic.w	r3, r3, r2
 80002e6:	4342      	muls	r2, r0
 80002e8:	431a      	orrs	r2, r3
 80002ea:	720a      	strb	r2, [r1, #8]
 80002ec:	bd10      	pop	{r4, pc}

080002ee <_ZN4Cube14incCurrentModeEv>:
 80002ee:	f890 3048 	ldrb.w	r3, [r0, #72]	; 0x48
 80002f2:	3301      	adds	r3, #1
 80002f4:	b2db      	uxtb	r3, r3
 80002f6:	2b08      	cmp	r3, #8
 80002f8:	bf88      	it	hi
 80002fa:	2300      	movhi	r3, #0
 80002fc:	f880 3048 	strb.w	r3, [r0, #72]	; 0x48
 8000300:	4770      	bx	lr

08000302 <_ZN4Cube14decCurrentModeEv>:
 8000302:	f890 3048 	ldrb.w	r3, [r0, #72]	; 0x48
 8000306:	3b01      	subs	r3, #1
 8000308:	b2db      	uxtb	r3, r3
 800030a:	2b08      	cmp	r3, #8
 800030c:	bf88      	it	hi
 800030e:	2307      	movhi	r3, #7
 8000310:	f880 3048 	strb.w	r3, [r0, #72]	; 0x48
 8000314:	4770      	bx	lr

08000316 <_ZN4Cube9clearCubeEv>:
 8000316:	2200      	movs	r2, #0
 8000318:	f100 0308 	add.w	r3, r0, #8
 800031c:	3010      	adds	r0, #16
 800031e:	f803 2b01 	strb.w	r2, [r3], #1
 8000322:	4298      	cmp	r0, r3
 8000324:	71da      	strb	r2, [r3, #7]
 8000326:	73da      	strb	r2, [r3, #15]
 8000328:	75da      	strb	r2, [r3, #23]
 800032a:	77da      	strb	r2, [r3, #31]
 800032c:	f883 2027 	strb.w	r2, [r3, #39]	; 0x27
 8000330:	f883 202f 	strb.w	r2, [r3, #47]	; 0x2f
 8000334:	f883 2037 	strb.w	r2, [r3, #55]	; 0x37
 8000338:	d1f1      	bne.n	800031e <_ZN4Cube9clearCubeEv+0x8>
 800033a:	4770      	bx	lr

0800033c <_ZN4Cube10changeModeEv>:
 800033c:	b538      	push	{r3, r4, r5, lr}
 800033e:	4604      	mov	r4, r0
 8000340:	2501      	movs	r5, #1
 8000342:	f7ff ffe8 	bl	8000316 <_ZN4Cube9clearCubeEv>
 8000346:	f884 5049 	strb.w	r5, [r4, #73]	; 0x49
 800034a:	f001 f887 	bl	800145c <HAL_GetTick>
 800034e:	4b1b      	ldr	r3, [pc, #108]	; (80003bc <_ZN4Cube10changeModeEv+0x80>)
 8000350:	6660      	str	r0, [r4, #100]	; 0x64
 8000352:	685a      	ldr	r2, [r3, #4]
 8000354:	f042 0220 	orr.w	r2, r2, #32
 8000358:	605a      	str	r2, [r3, #4]
 800035a:	f894 2048 	ldrb.w	r2, [r4, #72]	; 0x48
 800035e:	2a07      	cmp	r2, #7
 8000360:	d80e      	bhi.n	8000380 <_ZN4Cube10changeModeEv+0x44>
 8000362:	e8df f002 	tbb	[pc, r2]
 8000366:	130e      	.short	0x130e
 8000368:	25201c17 	.word	0x25201c17
 800036c:	0427      	.short	0x0427
 800036e:	66a5      	str	r5, [r4, #104]	; 0x68
 8000370:	685a      	ldr	r2, [r3, #4]
 8000372:	f022 0220 	bic.w	r2, r2, #32
 8000376:	605a      	str	r2, [r3, #4]
 8000378:	4b11      	ldr	r3, [pc, #68]	; (80003c0 <_ZN4Cube10changeModeEv+0x84>)
 800037a:	6023      	str	r3, [r4, #0]
 800037c:	2300      	movs	r3, #0
 800037e:	6063      	str	r3, [r4, #4]
 8000380:	bd38      	pop	{r3, r4, r5, pc}
 8000382:	f44f 7382 	mov.w	r3, #260	; 0x104
 8000386:	66a3      	str	r3, [r4, #104]	; 0x68
 8000388:	4b0e      	ldr	r3, [pc, #56]	; (80003c4 <_ZN4Cube10changeModeEv+0x88>)
 800038a:	e7f6      	b.n	800037a <_ZN4Cube10changeModeEv+0x3e>
 800038c:	23dc      	movs	r3, #220	; 0xdc
 800038e:	66a3      	str	r3, [r4, #104]	; 0x68
 8000390:	4b0d      	ldr	r3, [pc, #52]	; (80003c8 <_ZN4Cube10changeModeEv+0x8c>)
 8000392:	e7f2      	b.n	800037a <_ZN4Cube10changeModeEv+0x3e>
 8000394:	f44f 73af 	mov.w	r3, #350	; 0x15e
 8000398:	66a3      	str	r3, [r4, #104]	; 0x68
 800039a:	4b0c      	ldr	r3, [pc, #48]	; (80003cc <_ZN4Cube10changeModeEv+0x90>)
 800039c:	e7ed      	b.n	800037a <_ZN4Cube10changeModeEv+0x3e>
 800039e:	23c8      	movs	r3, #200	; 0xc8
 80003a0:	66a3      	str	r3, [r4, #104]	; 0x68
 80003a2:	4b0b      	ldr	r3, [pc, #44]	; (80003d0 <_ZN4Cube10changeModeEv+0x94>)
 80003a4:	e7e9      	b.n	800037a <_ZN4Cube10changeModeEv+0x3e>
 80003a6:	f44f 7396 	mov.w	r3, #300	; 0x12c
 80003aa:	66a3      	str	r3, [r4, #104]	; 0x68
 80003ac:	4b09      	ldr	r3, [pc, #36]	; (80003d4 <_ZN4Cube10changeModeEv+0x98>)
 80003ae:	e7e4      	b.n	800037a <_ZN4Cube10changeModeEv+0x3e>
 80003b0:	4b09      	ldr	r3, [pc, #36]	; (80003d8 <_ZN4Cube10changeModeEv+0x9c>)
 80003b2:	e7e2      	b.n	800037a <_ZN4Cube10changeModeEv+0x3e>
 80003b4:	2364      	movs	r3, #100	; 0x64
 80003b6:	66a3      	str	r3, [r4, #104]	; 0x68
 80003b8:	4b08      	ldr	r3, [pc, #32]	; (80003dc <_ZN4Cube10changeModeEv+0xa0>)
 80003ba:	e7de      	b.n	800037a <_ZN4Cube10changeModeEv+0x3e>
 80003bc:	40012800 	.word	0x40012800
 80003c0:	08000191 	.word	0x08000191
 80003c4:	08000ac7 	.word	0x08000ac7
 80003c8:	08000b3f 	.word	0x08000b3f
 80003cc:	08000693 	.word	0x08000693
 80003d0:	08000719 	.word	0x08000719
 80003d4:	08000a2f 	.word	0x08000a2f
 80003d8:	0800015d 	.word	0x0800015d
 80003dc:	080003e1 	.word	0x080003e1

080003e0 <_ZN4Cube11walkingCubeEv>:
 80003e0:	e92d 4ff7 	stmdb	sp!, {r0, r1, r2, r4, r5, r6, r7, r8, r9, sl, fp, lr}
 80003e4:	f890 3049 	ldrb.w	r3, [r0, #73]	; 0x49
 80003e8:	4604      	mov	r4, r0
 80003ea:	b1e3      	cbz	r3, 8000426 <_ZN4Cube11walkingCubeEv+0x46>
 80003ec:	f7ff ff93 	bl	8000316 <_ZN4Cube9clearCubeEv>
 80003f0:	2300      	movs	r3, #0
 80003f2:	f104 0650 	add.w	r6, r4, #80	; 0x50
 80003f6:	f884 3049 	strb.w	r3, [r4, #73]	; 0x49
 80003fa:	2364      	movs	r3, #100	; 0x64
 80003fc:	4637      	mov	r7, r6
 80003fe:	f44f 7896 	mov.w	r8, #300	; 0x12c
 8000402:	66a3      	str	r3, [r4, #104]	; 0x68
 8000404:	f104 054a 	add.w	r5, r4, #74	; 0x4a
 8000408:	f825 8b02 	strh.w	r8, [r5], #2
 800040c:	2107      	movs	r1, #7
 800040e:	2003      	movs	r0, #3
 8000410:	f000 fc7a 	bl	8000d08 <_Z15getRandomNumberii>
 8000414:	42bd      	cmp	r5, r7
 8000416:	ebc0 1000 	rsb	r0, r0, r0, lsl #4
 800041a:	f806 0b01 	strb.w	r0, [r6], #1
 800041e:	d1f3      	bne.n	8000408 <_ZN4Cube11walkingCubeEv+0x28>
 8000420:	f001 f81c 	bl	800145c <HAL_GetTick>
 8000424:	6660      	str	r0, [r4, #100]	; 0x64
 8000426:	f001 f819 	bl	800145c <HAL_GetTick>
 800042a:	6e63      	ldr	r3, [r4, #100]	; 0x64
 800042c:	1ac0      	subs	r0, r0, r3
 800042e:	6ea3      	ldr	r3, [r4, #104]	; 0x68
 8000430:	4298      	cmp	r0, r3
 8000432:	f240 808f 	bls.w	8000554 <_ZN4Cube11walkingCubeEv+0x174>
 8000436:	f001 f811 	bl	800145c <HAL_GetTick>
 800043a:	f104 0550 	add.w	r5, r4, #80	; 0x50
 800043e:	462f      	mov	r7, r5
 8000440:	f04f 0801 	mov.w	r8, #1
 8000444:	6660      	str	r0, [r4, #100]	; 0x64
 8000446:	f104 064a 	add.w	r6, r4, #74	; 0x4a
 800044a:	f936 3b02 	ldrsh.w	r3, [r6], #2
 800044e:	f915 2b01 	ldrsb.w	r2, [r5], #1
 8000452:	4413      	add	r3, r2
 8000454:	b21b      	sxth	r3, r3
 8000456:	2b01      	cmp	r3, #1
 8000458:	dd7f      	ble.n	800055a <_ZN4Cube11walkingCubeEv+0x17a>
 800045a:	f826 3c02 	strh.w	r3, [r6, #-2]
 800045e:	f936 3c02 	ldrsh.w	r3, [r6, #-2]
 8000462:	f5b3 7f16 	cmp.w	r3, #600	; 0x258
 8000466:	db12      	blt.n	800048e <_ZN4Cube11walkingCubeEv+0xae>
 8000468:	f44f 7316 	mov.w	r3, #600	; 0x258
 800046c:	f826 3c02 	strh.w	r3, [r6, #-2]
 8000470:	f815 3c01 	ldrb.w	r3, [r5, #-1]
 8000474:	2105      	movs	r1, #5
 8000476:	425b      	negs	r3, r3
 8000478:	f805 3c01 	strb.w	r3, [r5, #-1]
 800047c:	2000      	movs	r0, #0
 800047e:	f000 fc43 	bl	8000d08 <_Z15getRandomNumberii>
 8000482:	1ec3      	subs	r3, r0, #3
 8000484:	f815 0c01 	ldrb.w	r0, [r5, #-1]
 8000488:	4418      	add	r0, r3
 800048a:	f805 0c01 	strb.w	r0, [r5, #-1]
 800048e:	42be      	cmp	r6, r7
 8000490:	d1db      	bne.n	800044a <_ZN4Cube11walkingCubeEv+0x6a>
 8000492:	4620      	mov	r0, r4
 8000494:	f7ff ff3f 	bl	8000316 <_ZN4Cube9clearCubeEv>
 8000498:	2364      	movs	r3, #100	; 0x64
 800049a:	f9b4 604a 	ldrsh.w	r6, [r4, #74]	; 0x4a
 800049e:	f9b4 504c 	ldrsh.w	r5, [r4, #76]	; 0x4c
 80004a2:	f9b4 704e 	ldrsh.w	r7, [r4, #78]	; 0x4e
 80004a6:	fb96 f6f3 	sdiv	r6, r6, r3
 80004aa:	f04f 0801 	mov.w	r8, #1
 80004ae:	fb95 f5f3 	sdiv	r5, r5, r3
 80004b2:	fb97 f7f3 	sdiv	r7, r7, r3
 80004b6:	b2f6      	uxtb	r6, r6
 80004b8:	b2ed      	uxtb	r5, r5
 80004ba:	b2ff      	uxtb	r7, r7
 80004bc:	eb06 0908 	add.w	r9, r6, r8
 80004c0:	fa5f f989 	uxtb.w	r9, r9
 80004c4:	463b      	mov	r3, r7
 80004c6:	462a      	mov	r2, r5
 80004c8:	4631      	mov	r1, r6
 80004ca:	4620      	mov	r0, r4
 80004cc:	f8cd 8000 	str.w	r8, [sp]
 80004d0:	eb05 0a08 	add.w	sl, r5, r8
 80004d4:	f7ff fef9 	bl	80002ca <_ZN4Cube6setDotEhhhh>
 80004d8:	fa5f fa8a 	uxtb.w	sl, sl
 80004dc:	463b      	mov	r3, r7
 80004de:	462a      	mov	r2, r5
 80004e0:	4649      	mov	r1, r9
 80004e2:	4620      	mov	r0, r4
 80004e4:	f8cd 8000 	str.w	r8, [sp]
 80004e8:	eb07 0b08 	add.w	fp, r7, r8
 80004ec:	f7ff feed 	bl	80002ca <_ZN4Cube6setDotEhhhh>
 80004f0:	fa5f fb8b 	uxtb.w	fp, fp
 80004f4:	463b      	mov	r3, r7
 80004f6:	4652      	mov	r2, sl
 80004f8:	4631      	mov	r1, r6
 80004fa:	4620      	mov	r0, r4
 80004fc:	f8cd 8000 	str.w	r8, [sp]
 8000500:	f7ff fee3 	bl	80002ca <_ZN4Cube6setDotEhhhh>
 8000504:	465b      	mov	r3, fp
 8000506:	462a      	mov	r2, r5
 8000508:	4631      	mov	r1, r6
 800050a:	4620      	mov	r0, r4
 800050c:	f8cd 8000 	str.w	r8, [sp]
 8000510:	f7ff fedb 	bl	80002ca <_ZN4Cube6setDotEhhhh>
 8000514:	463b      	mov	r3, r7
 8000516:	4652      	mov	r2, sl
 8000518:	4649      	mov	r1, r9
 800051a:	4620      	mov	r0, r4
 800051c:	f8cd 8000 	str.w	r8, [sp]
 8000520:	f7ff fed3 	bl	80002ca <_ZN4Cube6setDotEhhhh>
 8000524:	465b      	mov	r3, fp
 8000526:	4652      	mov	r2, sl
 8000528:	4631      	mov	r1, r6
 800052a:	4620      	mov	r0, r4
 800052c:	f8cd 8000 	str.w	r8, [sp]
 8000530:	f7ff fecb 	bl	80002ca <_ZN4Cube6setDotEhhhh>
 8000534:	465b      	mov	r3, fp
 8000536:	462a      	mov	r2, r5
 8000538:	4649      	mov	r1, r9
 800053a:	4620      	mov	r0, r4
 800053c:	f8cd 8000 	str.w	r8, [sp]
 8000540:	f7ff fec3 	bl	80002ca <_ZN4Cube6setDotEhhhh>
 8000544:	465b      	mov	r3, fp
 8000546:	4652      	mov	r2, sl
 8000548:	4649      	mov	r1, r9
 800054a:	4620      	mov	r0, r4
 800054c:	f8cd 8000 	str.w	r8, [sp]
 8000550:	f7ff febb 	bl	80002ca <_ZN4Cube6setDotEhhhh>
 8000554:	b003      	add	sp, #12
 8000556:	e8bd 8ff0 	ldmia.w	sp!, {r4, r5, r6, r7, r8, r9, sl, fp, pc}
 800055a:	4252      	negs	r2, r2
 800055c:	f826 8c02 	strh.w	r8, [r6, #-2]
 8000560:	2105      	movs	r1, #5
 8000562:	2000      	movs	r0, #0
 8000564:	f805 2c01 	strb.w	r2, [r5, #-1]
 8000568:	f000 fbce 	bl	8000d08 <_Z15getRandomNumberii>
 800056c:	1ec3      	subs	r3, r0, #3
 800056e:	f815 0c01 	ldrb.w	r0, [r5, #-1]
 8000572:	4418      	add	r0, r3
 8000574:	f805 0c01 	strb.w	r0, [r5, #-1]
 8000578:	e771      	b.n	800045e <_ZN4Cube11walkingCubeEv+0x7e>

0800057a <_ZN4Cube13setTextStringEPch>:
 800057a:	65c1      	str	r1, [r0, #92]	; 0x5c
 800057c:	f880 2060 	strb.w	r2, [r0, #96]	; 0x60
 8000580:	4770      	bx	lr

08000582 <_ZN4Cube8drawCubeEhhhh>:
 8000582:	e92d 4ff0 	stmdb	sp!, {r4, r5, r6, r7, r8, r9, sl, fp, lr}
 8000586:	b089      	sub	sp, #36	; 0x24
 8000588:	4699      	mov	r9, r3
 800058a:	f89d 3048 	ldrb.w	r3, [sp, #72]	; 0x48
 800058e:	4605      	mov	r5, r0
 8000590:	9306      	str	r3, [sp, #24]
 8000592:	2300      	movs	r3, #0
 8000594:	4617      	mov	r7, r2
 8000596:	9a06      	ldr	r2, [sp, #24]
 8000598:	9304      	str	r3, [sp, #16]
 800059a:	1e4b      	subs	r3, r1, #1
 800059c:	4413      	add	r3, r2
 800059e:	b2db      	uxtb	r3, r3
 80005a0:	9103      	str	r1, [sp, #12]
 80005a2:	9307      	str	r3, [sp, #28]
 80005a4:	9b04      	ldr	r3, [sp, #16]
 80005a6:	9a06      	ldr	r2, [sp, #24]
 80005a8:	4293      	cmp	r3, r2
 80005aa:	d06f      	beq.n	800068c <_ZN4Cube8drawCubeEhhhh+0x10a>
 80005ac:	2401      	movs	r4, #1
 80005ae:	f89d 6010 	ldrb.w	r6, [sp, #16]
 80005b2:	464b      	mov	r3, r9
 80005b4:	eb07 0b06 	add.w	fp, r7, r6
 80005b8:	fa5f fb8b 	uxtb.w	fp, fp
 80005bc:	465a      	mov	r2, fp
 80005be:	4628      	mov	r0, r5
 80005c0:	9903      	ldr	r1, [sp, #12]
 80005c2:	9400      	str	r4, [sp, #0]
 80005c4:	f7ff fe81 	bl	80002ca <_ZN4Cube6setDotEhhhh>
 80005c8:	9b03      	ldr	r3, [sp, #12]
 80005ca:	463a      	mov	r2, r7
 80005cc:	eb03 0a06 	add.w	sl, r3, r6
 80005d0:	fa5f fa8a 	uxtb.w	sl, sl
 80005d4:	464b      	mov	r3, r9
 80005d6:	4651      	mov	r1, sl
 80005d8:	4628      	mov	r0, r5
 80005da:	444e      	add	r6, r9
 80005dc:	9400      	str	r4, [sp, #0]
 80005de:	f7ff fe74 	bl	80002ca <_ZN4Cube6setDotEhhhh>
 80005e2:	b2f3      	uxtb	r3, r6
 80005e4:	463a      	mov	r2, r7
 80005e6:	4628      	mov	r0, r5
 80005e8:	9903      	ldr	r1, [sp, #12]
 80005ea:	9400      	str	r4, [sp, #0]
 80005ec:	9305      	str	r3, [sp, #20]
 80005ee:	f7ff fe6c 	bl	80002ca <_ZN4Cube6setDotEhhhh>
 80005f2:	9b06      	ldr	r3, [sp, #24]
 80005f4:	f109 38ff 	add.w	r8, r9, #4294967295
 80005f8:	4498      	add	r8, r3
 80005fa:	fa5f f888 	uxtb.w	r8, r8
 80005fe:	4643      	mov	r3, r8
 8000600:	465a      	mov	r2, fp
 8000602:	4628      	mov	r0, r5
 8000604:	9907      	ldr	r1, [sp, #28]
 8000606:	9400      	str	r4, [sp, #0]
 8000608:	f7ff fe5f 	bl	80002ca <_ZN4Cube6setDotEhhhh>
 800060c:	9b06      	ldr	r3, [sp, #24]
 800060e:	1e7e      	subs	r6, r7, #1
 8000610:	441e      	add	r6, r3
 8000612:	b2f6      	uxtb	r6, r6
 8000614:	4643      	mov	r3, r8
 8000616:	4632      	mov	r2, r6
 8000618:	4651      	mov	r1, sl
 800061a:	4628      	mov	r0, r5
 800061c:	9400      	str	r4, [sp, #0]
 800061e:	f7ff fe54 	bl	80002ca <_ZN4Cube6setDotEhhhh>
 8000622:	4632      	mov	r2, r6
 8000624:	4628      	mov	r0, r5
 8000626:	9b05      	ldr	r3, [sp, #20]
 8000628:	9907      	ldr	r1, [sp, #28]
 800062a:	9400      	str	r4, [sp, #0]
 800062c:	f7ff fe4d 	bl	80002ca <_ZN4Cube6setDotEhhhh>
 8000630:	464b      	mov	r3, r9
 8000632:	465a      	mov	r2, fp
 8000634:	4628      	mov	r0, r5
 8000636:	9907      	ldr	r1, [sp, #28]
 8000638:	9400      	str	r4, [sp, #0]
 800063a:	f7ff fe46 	bl	80002ca <_ZN4Cube6setDotEhhhh>
 800063e:	4643      	mov	r3, r8
 8000640:	465a      	mov	r2, fp
 8000642:	4628      	mov	r0, r5
 8000644:	9903      	ldr	r1, [sp, #12]
 8000646:	9400      	str	r4, [sp, #0]
 8000648:	f7ff fe3f 	bl	80002ca <_ZN4Cube6setDotEhhhh>
 800064c:	464b      	mov	r3, r9
 800064e:	4632      	mov	r2, r6
 8000650:	4651      	mov	r1, sl
 8000652:	4628      	mov	r0, r5
 8000654:	9400      	str	r4, [sp, #0]
 8000656:	f7ff fe38 	bl	80002ca <_ZN4Cube6setDotEhhhh>
 800065a:	4643      	mov	r3, r8
 800065c:	463a      	mov	r2, r7
 800065e:	4651      	mov	r1, sl
 8000660:	4628      	mov	r0, r5
 8000662:	9400      	str	r4, [sp, #0]
 8000664:	f7ff fe31 	bl	80002ca <_ZN4Cube6setDotEhhhh>
 8000668:	463a      	mov	r2, r7
 800066a:	4628      	mov	r0, r5
 800066c:	9b05      	ldr	r3, [sp, #20]
 800066e:	9907      	ldr	r1, [sp, #28]
 8000670:	9400      	str	r4, [sp, #0]
 8000672:	f7ff fe2a 	bl	80002ca <_ZN4Cube6setDotEhhhh>
 8000676:	9b05      	ldr	r3, [sp, #20]
 8000678:	4632      	mov	r2, r6
 800067a:	4628      	mov	r0, r5
 800067c:	9903      	ldr	r1, [sp, #12]
 800067e:	9400      	str	r4, [sp, #0]
 8000680:	f7ff fe23 	bl	80002ca <_ZN4Cube6setDotEhhhh>
 8000684:	9b04      	ldr	r3, [sp, #16]
 8000686:	4423      	add	r3, r4
 8000688:	9304      	str	r3, [sp, #16]
 800068a:	e78b      	b.n	80005a4 <_ZN4Cube8drawCubeEhhhh+0x22>
 800068c:	b009      	add	sp, #36	; 0x24
 800068e:	e8bd 8ff0 	ldmia.w	sp!, {r4, r5, r6, r7, r8, r9, sl, fp, pc}

08000692 <_ZN4Cube8woopWoopEv>:
 8000692:	b513      	push	{r0, r1, r4, lr}
 8000694:	f890 3049 	ldrb.w	r3, [r0, #73]	; 0x49
 8000698:	4604      	mov	r4, r0
 800069a:	b15b      	cbz	r3, 80006b4 <_ZN4Cube8woopWoopEv+0x22>
 800069c:	f44f 73af 	mov.w	r3, #350	; 0x15e
 80006a0:	6683      	str	r3, [r0, #104]	; 0x68
 80006a2:	f7ff fe38 	bl	8000316 <_ZN4Cube9clearCubeEv>
 80006a6:	f44f 7381 	mov.w	r3, #258	; 0x102
 80006aa:	f8a4 3056 	strh.w	r3, [r4, #86]	; 0x56
 80006ae:	2300      	movs	r3, #0
 80006b0:	f884 3049 	strb.w	r3, [r4, #73]	; 0x49
 80006b4:	f000 fed2 	bl	800145c <HAL_GetTick>
 80006b8:	6e63      	ldr	r3, [r4, #100]	; 0x64
 80006ba:	1ac0      	subs	r0, r0, r3
 80006bc:	6ea3      	ldr	r3, [r4, #104]	; 0x68
 80006be:	4298      	cmp	r0, r3
 80006c0:	d91f      	bls.n	8000702 <_ZN4Cube8woopWoopEv+0x70>
 80006c2:	f000 fecb 	bl	800145c <HAL_GetTick>
 80006c6:	f894 2057 	ldrb.w	r2, [r4, #87]	; 0x57
 80006ca:	f894 3056 	ldrb.w	r3, [r4, #86]	; 0x56
 80006ce:	6660      	str	r0, [r4, #100]	; 0x64
 80006d0:	b1ca      	cbz	r2, 8000706 <_ZN4Cube8woopWoopEv+0x74>
 80006d2:	3302      	adds	r3, #2
 80006d4:	b2db      	uxtb	r3, r3
 80006d6:	2b08      	cmp	r3, #8
 80006d8:	f884 3056 	strb.w	r3, [r4, #86]	; 0x56
 80006dc:	d102      	bne.n	80006e4 <_ZN4Cube8woopWoopEv+0x52>
 80006de:	2300      	movs	r3, #0
 80006e0:	f884 3057 	strb.w	r3, [r4, #87]	; 0x57
 80006e4:	4620      	mov	r0, r4
 80006e6:	f7ff fe16 	bl	8000316 <_ZN4Cube9clearCubeEv>
 80006ea:	f894 2056 	ldrb.w	r2, [r4, #86]	; 0x56
 80006ee:	4620      	mov	r0, r4
 80006f0:	0853      	lsrs	r3, r2, #1
 80006f2:	f1c3 0304 	rsb	r3, r3, #4
 80006f6:	b2db      	uxtb	r3, r3
 80006f8:	9200      	str	r2, [sp, #0]
 80006fa:	4619      	mov	r1, r3
 80006fc:	461a      	mov	r2, r3
 80006fe:	f7ff ff40 	bl	8000582 <_ZN4Cube8drawCubeEhhhh>
 8000702:	b002      	add	sp, #8
 8000704:	bd10      	pop	{r4, pc}
 8000706:	3b02      	subs	r3, #2
 8000708:	b2db      	uxtb	r3, r3
 800070a:	2b02      	cmp	r3, #2
 800070c:	f884 3056 	strb.w	r3, [r4, #86]	; 0x56
 8000710:	d1e8      	bne.n	80006e4 <_ZN4Cube8woopWoopEv+0x52>
 8000712:	2301      	movs	r3, #1
 8000714:	e7e4      	b.n	80006e0 <_ZN4Cube8woopWoopEv+0x4e>
	...

08000718 <_ZN4Cube8cubeJumpEv>:
 8000718:	b537      	push	{r0, r1, r2, r4, r5, lr}
 800071a:	f890 3049 	ldrb.w	r3, [r0, #73]	; 0x49
 800071e:	4604      	mov	r4, r0
 8000720:	b1fb      	cbz	r3, 8000762 <_ZN4Cube8cubeJumpEv+0x4a>
 8000722:	2500      	movs	r5, #0
 8000724:	f880 5049 	strb.w	r5, [r0, #73]	; 0x49
 8000728:	f7ff fdf5 	bl	8000316 <_ZN4Cube9clearCubeEv>
 800072c:	2101      	movs	r1, #1
 800072e:	4628      	mov	r0, r5
 8000730:	f000 faea 	bl	8000d08 <_Z15getRandomNumberii>
 8000734:	ebc0 00c0 	rsb	r0, r0, r0, lsl #3
 8000738:	2101      	movs	r1, #1
 800073a:	f884 0058 	strb.w	r0, [r4, #88]	; 0x58
 800073e:	4628      	mov	r0, r5
 8000740:	f000 fae2 	bl	8000d08 <_Z15getRandomNumberii>
 8000744:	ebc0 00c0 	rsb	r0, r0, r0, lsl #3
 8000748:	f884 0059 	strb.w	r0, [r4, #89]	; 0x59
 800074c:	2101      	movs	r1, #1
 800074e:	4628      	mov	r0, r5
 8000750:	f000 fada 	bl	8000d08 <_Z15getRandomNumberii>
 8000754:	2308      	movs	r3, #8
 8000756:	ebc0 00c0 	rsb	r0, r0, r0, lsl #3
 800075a:	f884 005a 	strb.w	r0, [r4, #90]	; 0x5a
 800075e:	f8a4 3056 	strh.w	r3, [r4, #86]	; 0x56
 8000762:	f000 fe7b 	bl	800145c <HAL_GetTick>
 8000766:	6e63      	ldr	r3, [r4, #100]	; 0x64
 8000768:	1ac0      	subs	r0, r0, r3
 800076a:	6ea3      	ldr	r3, [r4, #104]	; 0x68
 800076c:	4298      	cmp	r0, r3
 800076e:	d93d      	bls.n	80007ec <_ZN4Cube8cubeJumpEv+0xd4>
 8000770:	f000 fe74 	bl	800145c <HAL_GetTick>
 8000774:	6660      	str	r0, [r4, #100]	; 0x64
 8000776:	4620      	mov	r0, r4
 8000778:	f7ff fdcd 	bl	8000316 <_ZN4Cube9clearCubeEv>
 800077c:	6da3      	ldr	r3, [r4, #88]	; 0x58
 800077e:	f894 0056 	ldrb.w	r0, [r4, #86]	; 0x56
 8000782:	f033 437f 	bics.w	r3, r3, #4278190080	; 0xff000000
 8000786:	d133      	bne.n	80007f0 <_ZN4Cube8cubeJumpEv+0xd8>
 8000788:	f894 305a 	ldrb.w	r3, [r4, #90]	; 0x5a
 800078c:	9000      	str	r0, [sp, #0]
 800078e:	f894 2059 	ldrb.w	r2, [r4, #89]	; 0x59
 8000792:	f894 1058 	ldrb.w	r1, [r4, #88]	; 0x58
 8000796:	4620      	mov	r0, r4
 8000798:	f7ff fef3 	bl	8000582 <_ZN4Cube8drawCubeEhhhh>
 800079c:	f894 2057 	ldrb.w	r2, [r4, #87]	; 0x57
 80007a0:	f894 3056 	ldrb.w	r3, [r4, #86]	; 0x56
 80007a4:	2a00      	cmp	r2, #0
 80007a6:	f000 8086 	beq.w	80008b6 <_ZN4Cube8cubeJumpEv+0x19e>
 80007aa:	3301      	adds	r3, #1
 80007ac:	b2db      	uxtb	r3, r3
 80007ae:	2b08      	cmp	r3, #8
 80007b0:	f884 3056 	strb.w	r3, [r4, #86]	; 0x56
 80007b4:	d11a      	bne.n	80007ec <_ZN4Cube8cubeJumpEv+0xd4>
 80007b6:	2500      	movs	r5, #0
 80007b8:	2101      	movs	r1, #1
 80007ba:	4628      	mov	r0, r5
 80007bc:	f884 5057 	strb.w	r5, [r4, #87]	; 0x57
 80007c0:	f000 faa2 	bl	8000d08 <_Z15getRandomNumberii>
 80007c4:	ebc0 00c0 	rsb	r0, r0, r0, lsl #3
 80007c8:	2101      	movs	r1, #1
 80007ca:	f884 0058 	strb.w	r0, [r4, #88]	; 0x58
 80007ce:	4628      	mov	r0, r5
 80007d0:	f000 fa9a 	bl	8000d08 <_Z15getRandomNumberii>
 80007d4:	ebc0 00c0 	rsb	r0, r0, r0, lsl #3
 80007d8:	f884 0059 	strb.w	r0, [r4, #89]	; 0x59
 80007dc:	2101      	movs	r1, #1
 80007de:	4628      	mov	r0, r5
 80007e0:	f000 fa92 	bl	8000d08 <_Z15getRandomNumberii>
 80007e4:	ebc0 00c0 	rsb	r0, r0, r0, lsl #3
 80007e8:	f884 005a 	strb.w	r0, [r4, #90]	; 0x5a
 80007ec:	b003      	add	sp, #12
 80007ee:	bd30      	pop	{r4, r5, pc}
 80007f0:	4a35      	ldr	r2, [pc, #212]	; (80008c8 <_ZN4Cube8cubeJumpEv+0x1b0>)
 80007f2:	4293      	cmp	r3, r2
 80007f4:	d110      	bne.n	8000818 <_ZN4Cube8cubeJumpEv+0x100>
 80007f6:	f894 305a 	ldrb.w	r3, [r4, #90]	; 0x5a
 80007fa:	f894 2059 	ldrb.w	r2, [r4, #89]	; 0x59
 80007fe:	f894 1058 	ldrb.w	r1, [r4, #88]	; 0x58
 8000802:	3301      	adds	r3, #1
 8000804:	1a1b      	subs	r3, r3, r0
 8000806:	3201      	adds	r2, #1
 8000808:	3101      	adds	r1, #1
 800080a:	1a12      	subs	r2, r2, r0
 800080c:	1a09      	subs	r1, r1, r0
 800080e:	9000      	str	r0, [sp, #0]
 8000810:	b2db      	uxtb	r3, r3
 8000812:	b2d2      	uxtb	r2, r2
 8000814:	b2c9      	uxtb	r1, r1
 8000816:	e7be      	b.n	8000796 <_ZN4Cube8cubeJumpEv+0x7e>
 8000818:	2b07      	cmp	r3, #7
 800081a:	d109      	bne.n	8000830 <_ZN4Cube8cubeJumpEv+0x118>
 800081c:	f894 1058 	ldrb.w	r1, [r4, #88]	; 0x58
 8000820:	f894 305a 	ldrb.w	r3, [r4, #90]	; 0x5a
 8000824:	3101      	adds	r1, #1
 8000826:	1a09      	subs	r1, r1, r0
 8000828:	9000      	str	r0, [sp, #0]
 800082a:	f894 2059 	ldrb.w	r2, [r4, #89]	; 0x59
 800082e:	e7f1      	b.n	8000814 <_ZN4Cube8cubeJumpEv+0xfc>
 8000830:	f5b3 6fe0 	cmp.w	r3, #1792	; 0x700
 8000834:	d108      	bne.n	8000848 <_ZN4Cube8cubeJumpEv+0x130>
 8000836:	f894 2059 	ldrb.w	r2, [r4, #89]	; 0x59
 800083a:	f894 305a 	ldrb.w	r3, [r4, #90]	; 0x5a
 800083e:	3201      	adds	r2, #1
 8000840:	1a12      	subs	r2, r2, r0
 8000842:	9000      	str	r0, [sp, #0]
 8000844:	b2d2      	uxtb	r2, r2
 8000846:	e7a4      	b.n	8000792 <_ZN4Cube8cubeJumpEv+0x7a>
 8000848:	f5b3 2fe0 	cmp.w	r3, #458752	; 0x70000
 800084c:	d106      	bne.n	800085c <_ZN4Cube8cubeJumpEv+0x144>
 800084e:	f894 305a 	ldrb.w	r3, [r4, #90]	; 0x5a
 8000852:	9000      	str	r0, [sp, #0]
 8000854:	3301      	adds	r3, #1
 8000856:	1a1b      	subs	r3, r3, r0
 8000858:	b2db      	uxtb	r3, r3
 800085a:	e798      	b.n	800078e <_ZN4Cube8cubeJumpEv+0x76>
 800085c:	f240 7207 	movw	r2, #1799	; 0x707
 8000860:	4293      	cmp	r3, r2
 8000862:	d10b      	bne.n	800087c <_ZN4Cube8cubeJumpEv+0x164>
 8000864:	f894 2059 	ldrb.w	r2, [r4, #89]	; 0x59
 8000868:	f894 1058 	ldrb.w	r1, [r4, #88]	; 0x58
 800086c:	3201      	adds	r2, #1
 800086e:	3101      	adds	r1, #1
 8000870:	f894 305a 	ldrb.w	r3, [r4, #90]	; 0x5a
 8000874:	1a12      	subs	r2, r2, r0
 8000876:	1a09      	subs	r1, r1, r0
 8000878:	9000      	str	r0, [sp, #0]
 800087a:	e7ca      	b.n	8000812 <_ZN4Cube8cubeJumpEv+0xfa>
 800087c:	4a13      	ldr	r2, [pc, #76]	; (80008cc <_ZN4Cube8cubeJumpEv+0x1b4>)
 800087e:	4293      	cmp	r3, r2
 8000880:	d10a      	bne.n	8000898 <_ZN4Cube8cubeJumpEv+0x180>
 8000882:	f894 305a 	ldrb.w	r3, [r4, #90]	; 0x5a
 8000886:	f894 2059 	ldrb.w	r2, [r4, #89]	; 0x59
 800088a:	3301      	adds	r3, #1
 800088c:	1a1b      	subs	r3, r3, r0
 800088e:	3201      	adds	r2, #1
 8000890:	1a12      	subs	r2, r2, r0
 8000892:	9000      	str	r0, [sp, #0]
 8000894:	b2db      	uxtb	r3, r3
 8000896:	e7d5      	b.n	8000844 <_ZN4Cube8cubeJumpEv+0x12c>
 8000898:	f1b3 1f07 	cmp.w	r3, #458759	; 0x70007
 800089c:	f47f af7e 	bne.w	800079c <_ZN4Cube8cubeJumpEv+0x84>
 80008a0:	f894 305a 	ldrb.w	r3, [r4, #90]	; 0x5a
 80008a4:	f894 1058 	ldrb.w	r1, [r4, #88]	; 0x58
 80008a8:	3301      	adds	r3, #1
 80008aa:	1a1b      	subs	r3, r3, r0
 80008ac:	3101      	adds	r1, #1
 80008ae:	1a09      	subs	r1, r1, r0
 80008b0:	9000      	str	r0, [sp, #0]
 80008b2:	b2db      	uxtb	r3, r3
 80008b4:	e7b9      	b.n	800082a <_ZN4Cube8cubeJumpEv+0x112>
 80008b6:	3b01      	subs	r3, #1
 80008b8:	b2db      	uxtb	r3, r3
 80008ba:	2b01      	cmp	r3, #1
 80008bc:	f884 3056 	strb.w	r3, [r4, #86]	; 0x56
 80008c0:	bf08      	it	eq
 80008c2:	f884 3057 	strbeq.w	r3, [r4, #87]	; 0x57
 80008c6:	e791      	b.n	80007ec <_ZN4Cube8cubeJumpEv+0xd4>
 80008c8:	00070707 	.word	0x00070707
 80008cc:	00070700 	.word	0x00070700

080008d0 <_ZN4Cube7setWallE4Axish>:
 80008d0:	e92d 43f7 	stmdb	sp!, {r0, r1, r2, r4, r5, r6, r7, r8, r9, lr}
 80008d4:	4607      	mov	r7, r0
 80008d6:	460e      	mov	r6, r1
 80008d8:	4690      	mov	r8, r2
 80008da:	2400      	movs	r4, #0
 80008dc:	f04f 0901 	mov.w	r9, #1
 80008e0:	2500      	movs	r5, #0
 80008e2:	2e01      	cmp	r6, #1
 80008e4:	d015      	beq.n	8000912 <_ZN4Cube7setWallE4Axish+0x42>
 80008e6:	2e02      	cmp	r6, #2
 80008e8:	d018      	beq.n	800091c <_ZN4Cube7setWallE4Axish+0x4c>
 80008ea:	b93e      	cbnz	r6, 80008fc <_ZN4Cube7setWallE4Axish+0x2c>
 80008ec:	462b      	mov	r3, r5
 80008ee:	4622      	mov	r2, r4
 80008f0:	4641      	mov	r1, r8
 80008f2:	f8cd 9000 	str.w	r9, [sp]
 80008f6:	4638      	mov	r0, r7
 80008f8:	f7ff fce7 	bl	80002ca <_ZN4Cube6setDotEhhhh>
 80008fc:	3501      	adds	r5, #1
 80008fe:	b2ed      	uxtb	r5, r5
 8000900:	2d08      	cmp	r5, #8
 8000902:	d1ee      	bne.n	80008e2 <_ZN4Cube7setWallE4Axish+0x12>
 8000904:	3401      	adds	r4, #1
 8000906:	b2e4      	uxtb	r4, r4
 8000908:	2c08      	cmp	r4, #8
 800090a:	d1e9      	bne.n	80008e0 <_ZN4Cube7setWallE4Axish+0x10>
 800090c:	b003      	add	sp, #12
 800090e:	e8bd 83f0 	ldmia.w	sp!, {r4, r5, r6, r7, r8, r9, pc}
 8000912:	462b      	mov	r3, r5
 8000914:	4642      	mov	r2, r8
 8000916:	9600      	str	r6, [sp, #0]
 8000918:	4621      	mov	r1, r4
 800091a:	e7ec      	b.n	80008f6 <_ZN4Cube7setWallE4Axish+0x26>
 800091c:	4643      	mov	r3, r8
 800091e:	462a      	mov	r2, r5
 8000920:	f8cd 9000 	str.w	r9, [sp]
 8000924:	e7f8      	b.n	8000918 <_ZN4Cube7setWallE4Axish+0x48>

08000926 <_ZN4Cube5shiftE9Direction>:
 8000926:	b530      	push	{r4, r5, lr}
 8000928:	2905      	cmp	r1, #5
 800092a:	d81e      	bhi.n	800096a <_ZN4Cube5shiftE9Direction+0x44>
 800092c:	e8df f001 	tbb	[pc, r1]
 8000930:	493a1e03 	.word	0x493a1e03
 8000934:	6a58      	.short	0x6a58
 8000936:	1dc3      	adds	r3, r0, #7
 8000938:	4619      	mov	r1, r3
 800093a:	2200      	movs	r2, #0
 800093c:	79cc      	ldrb	r4, [r1, #7]
 800093e:	3201      	adds	r2, #1
 8000940:	2a08      	cmp	r2, #8
 8000942:	f801 4f08 	strb.w	r4, [r1, #8]!
 8000946:	d1f9      	bne.n	800093c <_ZN4Cube5shiftE9Direction+0x16>
 8000948:	3b01      	subs	r3, #1
 800094a:	4298      	cmp	r0, r3
 800094c:	d1f4      	bne.n	8000938 <_ZN4Cube5shiftE9Direction+0x12>
 800094e:	2300      	movs	r3, #0
 8000950:	7203      	strb	r3, [r0, #8]
 8000952:	7403      	strb	r3, [r0, #16]
 8000954:	7603      	strb	r3, [r0, #24]
 8000956:	f880 3020 	strb.w	r3, [r0, #32]
 800095a:	f880 3028 	strb.w	r3, [r0, #40]	; 0x28
 800095e:	f880 3030 	strb.w	r3, [r0, #48]	; 0x30
 8000962:	f880 3038 	strb.w	r3, [r0, #56]	; 0x38
 8000966:	f880 3040 	strb.w	r3, [r0, #64]	; 0x40
 800096a:	bd30      	pop	{r4, r5, pc}
 800096c:	4603      	mov	r3, r0
 800096e:	1dc4      	adds	r4, r0, #7
 8000970:	4619      	mov	r1, r3
 8000972:	2201      	movs	r2, #1
 8000974:	7a4d      	ldrb	r5, [r1, #9]
 8000976:	3201      	adds	r2, #1
 8000978:	2a09      	cmp	r2, #9
 800097a:	f801 5f08 	strb.w	r5, [r1, #8]!
 800097e:	d1f9      	bne.n	8000974 <_ZN4Cube5shiftE9Direction+0x4e>
 8000980:	3301      	adds	r3, #1
 8000982:	429c      	cmp	r4, r3
 8000984:	d1f4      	bne.n	8000970 <_ZN4Cube5shiftE9Direction+0x4a>
 8000986:	2300      	movs	r3, #0
 8000988:	73c3      	strb	r3, [r0, #15]
 800098a:	75c3      	strb	r3, [r0, #23]
 800098c:	77c3      	strb	r3, [r0, #31]
 800098e:	f880 3027 	strb.w	r3, [r0, #39]	; 0x27
 8000992:	f880 302f 	strb.w	r3, [r0, #47]	; 0x2f
 8000996:	f880 3037 	strb.w	r3, [r0, #55]	; 0x37
 800099a:	f880 303f 	strb.w	r3, [r0, #63]	; 0x3f
 800099e:	f880 3047 	strb.w	r3, [r0, #71]	; 0x47
 80009a2:	e7e2      	b.n	800096a <_ZN4Cube5shiftE9Direction+0x44>
 80009a4:	f100 0408 	add.w	r4, r0, #8
 80009a8:	4602      	mov	r2, r0
 80009aa:	2301      	movs	r3, #1
 80009ac:	7a11      	ldrb	r1, [r2, #8]
 80009ae:	3301      	adds	r3, #1
 80009b0:	1049      	asrs	r1, r1, #1
 80009b2:	2b09      	cmp	r3, #9
 80009b4:	f802 1f08 	strb.w	r1, [r2, #8]!
 80009b8:	d1f8      	bne.n	80009ac <_ZN4Cube5shiftE9Direction+0x86>
 80009ba:	3001      	adds	r0, #1
 80009bc:	4284      	cmp	r4, r0
 80009be:	d1f3      	bne.n	80009a8 <_ZN4Cube5shiftE9Direction+0x82>
 80009c0:	e7d3      	b.n	800096a <_ZN4Cube5shiftE9Direction+0x44>
 80009c2:	f100 0408 	add.w	r4, r0, #8
 80009c6:	4602      	mov	r2, r0
 80009c8:	2301      	movs	r3, #1
 80009ca:	7a11      	ldrb	r1, [r2, #8]
 80009cc:	3301      	adds	r3, #1
 80009ce:	0049      	lsls	r1, r1, #1
 80009d0:	2b09      	cmp	r3, #9
 80009d2:	f802 1f08 	strb.w	r1, [r2, #8]!
 80009d6:	d1f8      	bne.n	80009ca <_ZN4Cube5shiftE9Direction+0xa4>
 80009d8:	3001      	adds	r0, #1
 80009da:	4284      	cmp	r4, r0
 80009dc:	d1f3      	bne.n	80009c6 <_ZN4Cube5shiftE9Direction+0xa0>
 80009de:	e7c4      	b.n	800096a <_ZN4Cube5shiftE9Direction+0x44>
 80009e0:	4603      	mov	r3, r0
 80009e2:	f100 0408 	add.w	r4, r0, #8
 80009e6:	4619      	mov	r1, r3
 80009e8:	2201      	movs	r2, #1
 80009ea:	7c0d      	ldrb	r5, [r1, #16]
 80009ec:	3201      	adds	r2, #1
 80009ee:	2a08      	cmp	r2, #8
 80009f0:	f801 5f08 	strb.w	r5, [r1, #8]!
 80009f4:	d1f9      	bne.n	80009ea <_ZN4Cube5shiftE9Direction+0xc4>
 80009f6:	3301      	adds	r3, #1
 80009f8:	42a3      	cmp	r3, r4
 80009fa:	d1f4      	bne.n	80009e6 <_ZN4Cube5shiftE9Direction+0xc0>
 80009fc:	2300      	movs	r3, #0
 80009fe:	e9c0 3310 	strd	r3, r3, [r0, #64]	; 0x40
 8000a02:	e7b2      	b.n	800096a <_ZN4Cube5shiftE9Direction+0x44>
 8000a04:	4603      	mov	r3, r0
 8000a06:	f100 0408 	add.w	r4, r0, #8
 8000a0a:	461a      	mov	r2, r3
 8000a0c:	2100      	movs	r1, #0
 8000a0e:	f892 5038 	ldrb.w	r5, [r2, #56]	; 0x38
 8000a12:	3101      	adds	r1, #1
 8000a14:	2907      	cmp	r1, #7
 8000a16:	f882 5040 	strb.w	r5, [r2, #64]	; 0x40
 8000a1a:	f1a2 0208 	sub.w	r2, r2, #8
 8000a1e:	d1f6      	bne.n	8000a0e <_ZN4Cube5shiftE9Direction+0xe8>
 8000a20:	3301      	adds	r3, #1
 8000a22:	42a3      	cmp	r3, r4
 8000a24:	d1f1      	bne.n	8000a0a <_ZN4Cube5shiftE9Direction+0xe4>
 8000a26:	2300      	movs	r3, #0
 8000a28:	e9c0 3302 	strd	r3, r3, [r0, #8]
 8000a2c:	e79d      	b.n	800096a <_ZN4Cube5shiftE9Direction+0x44>

08000a2e <_ZN4Cube4textEv>:
 8000a2e:	b570      	push	{r4, r5, r6, lr}
 8000a30:	f890 3049 	ldrb.w	r3, [r0, #73]	; 0x49
 8000a34:	4604      	mov	r4, r0
 8000a36:	b163      	cbz	r3, 8000a52 <_ZN4Cube4textEv+0x24>
 8000a38:	6dc3      	ldr	r3, [r0, #92]	; 0x5c
 8000a3a:	2b00      	cmp	r3, #0
 8000a3c:	d042      	beq.n	8000ac4 <_ZN4Cube4textEv+0x96>
 8000a3e:	2100      	movs	r1, #0
 8000a40:	f880 1049 	strb.w	r1, [r0, #73]	; 0x49
 8000a44:	f7ff fc67 	bl	8000316 <_ZN4Cube9clearCubeEv>
 8000a48:	23ff      	movs	r3, #255	; 0xff
 8000a4a:	f884 1061 	strb.w	r1, [r4, #97]	; 0x61
 8000a4e:	f884 3062 	strb.w	r3, [r4, #98]	; 0x62
 8000a52:	f000 fd03 	bl	800145c <HAL_GetTick>
 8000a56:	6e63      	ldr	r3, [r4, #100]	; 0x64
 8000a58:	1ac0      	subs	r0, r0, r3
 8000a5a:	6ea3      	ldr	r3, [r4, #104]	; 0x68
 8000a5c:	4298      	cmp	r0, r3
 8000a5e:	d931      	bls.n	8000ac4 <_ZN4Cube4textEv+0x96>
 8000a60:	f000 fcfc 	bl	800145c <HAL_GetTick>
 8000a64:	2100      	movs	r1, #0
 8000a66:	6660      	str	r0, [r4, #100]	; 0x64
 8000a68:	4620      	mov	r0, r4
 8000a6a:	f7ff ff5c 	bl	8000926 <_ZN4Cube5shiftE9Direction>
 8000a6e:	f894 3062 	ldrb.w	r3, [r4, #98]	; 0x62
 8000a72:	3301      	adds	r3, #1
 8000a74:	b2db      	uxtb	r3, r3
 8000a76:	2b07      	cmp	r3, #7
 8000a78:	f884 3062 	strb.w	r3, [r4, #98]	; 0x62
 8000a7c:	d120      	bne.n	8000ac0 <_ZN4Cube4textEv+0x92>
 8000a7e:	f894 3061 	ldrb.w	r3, [r4, #97]	; 0x61
 8000a82:	f894 2060 	ldrb.w	r2, [r4, #96]	; 0x60
 8000a86:	3301      	adds	r3, #1
 8000a88:	b2db      	uxtb	r3, r3
 8000a8a:	429a      	cmp	r2, r3
 8000a8c:	f04f 0200 	mov.w	r2, #0
 8000a90:	bf8c      	ite	hi
 8000a92:	f884 3061 	strbhi.w	r3, [r4, #97]	; 0x61
 8000a96:	f884 2061 	strbls.w	r2, [r4, #97]	; 0x61
 8000a9a:	f884 2062 	strb.w	r2, [r4, #98]	; 0x62
 8000a9e:	2500      	movs	r5, #0
 8000aa0:	f104 0608 	add.w	r6, r4, #8
 8000aa4:	f894 3061 	ldrb.w	r3, [r4, #97]	; 0x61
 8000aa8:	6de1      	ldr	r1, [r4, #92]	; 0x5c
 8000aaa:	b2ea      	uxtb	r2, r5
 8000aac:	4620      	mov	r0, r4
 8000aae:	5cc9      	ldrb	r1, [r1, r3]
 8000ab0:	f000 f8b8 	bl	8000c24 <_ZN4Cube7getFontEhh>
 8000ab4:	f806 0035 	strb.w	r0, [r6, r5, lsl #3]
 8000ab8:	3501      	adds	r5, #1
 8000aba:	2d08      	cmp	r5, #8
 8000abc:	d1f2      	bne.n	8000aa4 <_ZN4Cube4textEv+0x76>
 8000abe:	e001      	b.n	8000ac4 <_ZN4Cube4textEv+0x96>
 8000ac0:	2b00      	cmp	r3, #0
 8000ac2:	d0ec      	beq.n	8000a9e <_ZN4Cube4textEv+0x70>
 8000ac4:	bd70      	pop	{r4, r5, r6, pc}

08000ac6 <_ZN4Cube4rainEv>:
 8000ac6:	e92d 41f0 	stmdb	sp!, {r4, r5, r6, r7, r8, lr}
 8000aca:	f890 3049 	ldrb.w	r3, [r0, #73]	; 0x49
 8000ace:	4604      	mov	r4, r0
 8000ad0:	b13b      	cbz	r3, 8000ae2 <_ZN4Cube4rainEv+0x1c>
 8000ad2:	f7ff fc20 	bl	8000316 <_ZN4Cube9clearCubeEv>
 8000ad6:	2300      	movs	r3, #0
 8000ad8:	f884 3049 	strb.w	r3, [r4, #73]	; 0x49
 8000adc:	f000 fcbe 	bl	800145c <HAL_GetTick>
 8000ae0:	6660      	str	r0, [r4, #100]	; 0x64
 8000ae2:	f000 fcbb 	bl	800145c <HAL_GetTick>
 8000ae6:	6e63      	ldr	r3, [r4, #100]	; 0x64
 8000ae8:	1ac0      	subs	r0, r0, r3
 8000aea:	6ea3      	ldr	r3, [r4, #104]	; 0x68
 8000aec:	4298      	cmp	r0, r3
 8000aee:	d924      	bls.n	8000b3a <_ZN4Cube4rainEv+0x74>
 8000af0:	f000 fcb4 	bl	800145c <HAL_GetTick>
 8000af4:	2103      	movs	r1, #3
 8000af6:	6660      	str	r0, [r4, #100]	; 0x64
 8000af8:	4620      	mov	r0, r4
 8000afa:	f7ff ff14 	bl	8000926 <_ZN4Cube5shiftE9Direction>
 8000afe:	2104      	movs	r1, #4
 8000b00:	2000      	movs	r0, #0
 8000b02:	f000 f901 	bl	8000d08 <_Z15getRandomNumberii>
 8000b06:	2600      	movs	r6, #0
 8000b08:	f04f 0880 	mov.w	r8, #128	; 0x80
 8000b0c:	b2c7      	uxtb	r7, r0
 8000b0e:	b2f3      	uxtb	r3, r6
 8000b10:	42bb      	cmp	r3, r7
 8000b12:	d212      	bcs.n	8000b3a <_ZN4Cube4rainEv+0x74>
 8000b14:	2107      	movs	r1, #7
 8000b16:	2000      	movs	r0, #0
 8000b18:	f000 f8f6 	bl	8000d08 <_Z15getRandomNumberii>
 8000b1c:	4605      	mov	r5, r0
 8000b1e:	2107      	movs	r1, #7
 8000b20:	2000      	movs	r0, #0
 8000b22:	f000 f8f1 	bl	8000d08 <_Z15getRandomNumberii>
 8000b26:	b2eb      	uxtb	r3, r5
 8000b28:	4423      	add	r3, r4
 8000b2a:	b2c2      	uxtb	r2, r0
 8000b2c:	7a18      	ldrb	r0, [r3, #8]
 8000b2e:	fa48 f202 	asr.w	r2, r8, r2
 8000b32:	4302      	orrs	r2, r0
 8000b34:	721a      	strb	r2, [r3, #8]
 8000b36:	3601      	adds	r6, #1
 8000b38:	e7e9      	b.n	8000b0e <_ZN4Cube4rainEv+0x48>
 8000b3a:	e8bd 81f0 	ldmia.w	sp!, {r4, r5, r6, r7, r8, pc}

08000b3e <_ZN4Cube20walk_and_flying_WallEv>:
 8000b3e:	b538      	push	{r3, r4, r5, lr}
 8000b40:	f890 3049 	ldrb.w	r3, [r0, #73]	; 0x49
 8000b44:	4604      	mov	r4, r0
 8000b46:	b333      	cbz	r3, 8000b96 <_ZN4Cube20walk_and_flying_WallEv+0x58>
 8000b48:	f7ff fbe5 	bl	8000316 <_ZN4Cube9clearCubeEv>
 8000b4c:	2102      	movs	r1, #2
 8000b4e:	2000      	movs	r0, #0
 8000b50:	f000 f8da 	bl	8000d08 <_Z15getRandomNumberii>
 8000b54:	2101      	movs	r1, #1
 8000b56:	4605      	mov	r5, r0
 8000b58:	2000      	movs	r0, #0
 8000b5a:	f000 f8d5 	bl	8000d08 <_Z15getRandomNumberii>
 8000b5e:	ebc0 00c0 	rsb	r0, r0, r0, lsl #3
 8000b62:	b2c2      	uxtb	r2, r0
 8000b64:	b2ed      	uxtb	r5, r5
 8000b66:	4629      	mov	r1, r5
 8000b68:	4620      	mov	r0, r4
 8000b6a:	f884 2054 	strb.w	r2, [r4, #84]	; 0x54
 8000b6e:	f7ff feaf 	bl	80008d0 <_ZN4Cube7setWallE4Axish>
 8000b72:	2d01      	cmp	r5, #1
 8000b74:	d034      	beq.n	8000be0 <_ZN4Cube20walk_and_flying_WallEv+0xa2>
 8000b76:	2d02      	cmp	r5, #2
 8000b78:	d039      	beq.n	8000bee <_ZN4Cube20walk_and_flying_WallEv+0xb0>
 8000b7a:	b925      	cbnz	r5, 8000b86 <_ZN4Cube20walk_and_flying_WallEv+0x48>
 8000b7c:	f894 3054 	ldrb.w	r3, [r4, #84]	; 0x54
 8000b80:	bb63      	cbnz	r3, 8000bdc <_ZN4Cube20walk_and_flying_WallEv+0x9e>
 8000b82:	f884 3053 	strb.w	r3, [r4, #83]	; 0x53
 8000b86:	2300      	movs	r3, #0
 8000b88:	f884 3055 	strb.w	r3, [r4, #85]	; 0x55
 8000b8c:	f884 3049 	strb.w	r3, [r4, #73]	; 0x49
 8000b90:	f000 fc64 	bl	800145c <HAL_GetTick>
 8000b94:	6660      	str	r0, [r4, #100]	; 0x64
 8000b96:	f000 fc61 	bl	800145c <HAL_GetTick>
 8000b9a:	6e63      	ldr	r3, [r4, #100]	; 0x64
 8000b9c:	1ac0      	subs	r0, r0, r3
 8000b9e:	6ea3      	ldr	r3, [r4, #104]	; 0x68
 8000ba0:	4298      	cmp	r0, r3
 8000ba2:	d91a      	bls.n	8000bda <_ZN4Cube20walk_and_flying_WallEv+0x9c>
 8000ba4:	f000 fc5a 	bl	800145c <HAL_GetTick>
 8000ba8:	f894 1053 	ldrb.w	r1, [r4, #83]	; 0x53
 8000bac:	6660      	str	r0, [r4, #100]	; 0x64
 8000bae:	4620      	mov	r0, r4
 8000bb0:	f7ff feb9 	bl	8000926 <_ZN4Cube5shiftE9Direction>
 8000bb4:	f894 2053 	ldrb.w	r2, [r4, #83]	; 0x53
 8000bb8:	f894 3054 	ldrb.w	r3, [r4, #84]	; 0x54
 8000bbc:	f012 0f01 	tst.w	r2, #1
 8000bc0:	d123      	bne.n	8000c0a <_ZN4Cube20walk_and_flying_WallEv+0xcc>
 8000bc2:	3301      	adds	r3, #1
 8000bc4:	b2db      	uxtb	r3, r3
 8000bc6:	2b07      	cmp	r3, #7
 8000bc8:	f884 3054 	strb.w	r3, [r4, #84]	; 0x54
 8000bcc:	d105      	bne.n	8000bda <_ZN4Cube20walk_and_flying_WallEv+0x9c>
 8000bce:	f894 3055 	ldrb.w	r3, [r4, #85]	; 0x55
 8000bd2:	b19b      	cbz	r3, 8000bfc <_ZN4Cube20walk_and_flying_WallEv+0xbe>
 8000bd4:	2301      	movs	r3, #1
 8000bd6:	f884 3049 	strb.w	r3, [r4, #73]	; 0x49
 8000bda:	bd38      	pop	{r3, r4, r5, pc}
 8000bdc:	2301      	movs	r3, #1
 8000bde:	e7d0      	b.n	8000b82 <_ZN4Cube20walk_and_flying_WallEv+0x44>
 8000be0:	f894 3054 	ldrb.w	r3, [r4, #84]	; 0x54
 8000be4:	b90b      	cbnz	r3, 8000bea <_ZN4Cube20walk_and_flying_WallEv+0xac>
 8000be6:	2302      	movs	r3, #2
 8000be8:	e7cb      	b.n	8000b82 <_ZN4Cube20walk_and_flying_WallEv+0x44>
 8000bea:	2303      	movs	r3, #3
 8000bec:	e7c9      	b.n	8000b82 <_ZN4Cube20walk_and_flying_WallEv+0x44>
 8000bee:	f894 3054 	ldrb.w	r3, [r4, #84]	; 0x54
 8000bf2:	b90b      	cbnz	r3, 8000bf8 <_ZN4Cube20walk_and_flying_WallEv+0xba>
 8000bf4:	2304      	movs	r3, #4
 8000bf6:	e7c4      	b.n	8000b82 <_ZN4Cube20walk_and_flying_WallEv+0x44>
 8000bf8:	2305      	movs	r3, #5
 8000bfa:	e7c2      	b.n	8000b82 <_ZN4Cube20walk_and_flying_WallEv+0x44>
 8000bfc:	3201      	adds	r2, #1
 8000bfe:	2301      	movs	r3, #1
 8000c00:	f884 2053 	strb.w	r2, [r4, #83]	; 0x53
 8000c04:	f884 3055 	strb.w	r3, [r4, #85]	; 0x55
 8000c08:	e7e7      	b.n	8000bda <_ZN4Cube20walk_and_flying_WallEv+0x9c>
 8000c0a:	3b01      	subs	r3, #1
 8000c0c:	b2db      	uxtb	r3, r3
 8000c0e:	f884 3054 	strb.w	r3, [r4, #84]	; 0x54
 8000c12:	2b00      	cmp	r3, #0
 8000c14:	d1e1      	bne.n	8000bda <_ZN4Cube20walk_and_flying_WallEv+0x9c>
 8000c16:	f894 3055 	ldrb.w	r3, [r4, #85]	; 0x55
 8000c1a:	2b00      	cmp	r3, #0
 8000c1c:	d1da      	bne.n	8000bd4 <_ZN4Cube20walk_and_flying_WallEv+0x96>
 8000c1e:	3a01      	subs	r2, #1
 8000c20:	e7ed      	b.n	8000bfe <_ZN4Cube20walk_and_flying_WallEv+0xc0>
	...

08000c24 <_ZN4Cube7getFontEhh>:
 8000c24:	3920      	subs	r1, #32
 8000c26:	b2c9      	uxtb	r1, r1
 8000c28:	297d      	cmp	r1, #125	; 0x7d
 8000c2a:	4b04      	ldr	r3, [pc, #16]	; (8000c3c <_ZN4Cube7getFontEhh+0x18>)
 8000c2c:	bf88      	it	hi
 8000c2e:	3941      	subhi	r1, #65	; 0x41
 8000c30:	f1c2 0207 	rsb	r2, r2, #7
 8000c34:	eb03 01c1 	add.w	r1, r3, r1, lsl #3
 8000c38:	5c88      	ldrb	r0, [r1, r2]
 8000c3a:	4770      	bx	lr
 8000c3c:	080041a0 	.word	0x080041a0

08000c40 <_Z14SwitchingModesv>:
 8000c40:	b510      	push	{r4, lr}
 8000c42:	4c0b      	ldr	r4, [pc, #44]	; (8000c70 <_Z14SwitchingModesv+0x30>)
 8000c44:	8823      	ldrh	r3, [r4, #0]
 8000c46:	07da      	lsls	r2, r3, #31
 8000c48:	d506      	bpl.n	8000c58 <_Z14SwitchingModesv+0x18>
 8000c4a:	480a      	ldr	r0, [pc, #40]	; (8000c74 <_Z14SwitchingModesv+0x34>)
 8000c4c:	f7ff fb4f 	bl	80002ee <_ZN4Cube14incCurrentModeEv>
 8000c50:	8823      	ldrh	r3, [r4, #0]
 8000c52:	f023 0301 	bic.w	r3, r3, #1
 8000c56:	8023      	strh	r3, [r4, #0]
 8000c58:	8823      	ldrh	r3, [r4, #0]
 8000c5a:	075b      	lsls	r3, r3, #29
 8000c5c:	d506      	bpl.n	8000c6c <_Z14SwitchingModesv+0x2c>
 8000c5e:	4805      	ldr	r0, [pc, #20]	; (8000c74 <_Z14SwitchingModesv+0x34>)
 8000c60:	f7ff fb4f 	bl	8000302 <_ZN4Cube14decCurrentModeEv>
 8000c64:	8823      	ldrh	r3, [r4, #0]
 8000c66:	f023 0304 	bic.w	r3, r3, #4
 8000c6a:	8023      	strh	r3, [r4, #0]
 8000c6c:	bd10      	pop	{r4, pc}
 8000c6e:	bf00      	nop
 8000c70:	200000f4 	.word	0x200000f4
 8000c74:	200000f8 	.word	0x200000f8

08000c78 <_Z13ChangingSpeedv>:
 8000c78:	b510      	push	{r4, lr}
 8000c7a:	4c21      	ldr	r4, [pc, #132]	; (8000d00 <_Z13ChangingSpeedv+0x88>)
 8000c7c:	8823      	ldrh	r3, [r4, #0]
 8000c7e:	06d9      	lsls	r1, r3, #27
 8000c80:	d517      	bpl.n	8000cb2 <_Z13ChangingSpeedv+0x3a>
 8000c82:	4820      	ldr	r0, [pc, #128]	; (8000d04 <_Z13ChangingSpeedv+0x8c>)
 8000c84:	f7ff fb1c 	bl	80002c0 <_ZN4Cube8getSpeedEv>
 8000c88:	f100 010a 	add.w	r1, r0, #10
 8000c8c:	b209      	sxth	r1, r1
 8000c8e:	481d      	ldr	r0, [pc, #116]	; (8000d04 <_Z13ChangingSpeedv+0x8c>)
 8000c90:	f7ff fb14 	bl	80002bc <_ZN4Cube8setSpeedEs>
 8000c94:	481b      	ldr	r0, [pc, #108]	; (8000d04 <_Z13ChangingSpeedv+0x8c>)
 8000c96:	f7ff fb13 	bl	80002c0 <_ZN4Cube8getSpeedEv>
 8000c9a:	f5b0 7f7a 	cmp.w	r0, #1000	; 0x3e8
 8000c9e:	dd04      	ble.n	8000caa <_Z13ChangingSpeedv+0x32>
 8000ca0:	f44f 717a 	mov.w	r1, #1000	; 0x3e8
 8000ca4:	4817      	ldr	r0, [pc, #92]	; (8000d04 <_Z13ChangingSpeedv+0x8c>)
 8000ca6:	f7ff fb09 	bl	80002bc <_ZN4Cube8setSpeedEs>
 8000caa:	8823      	ldrh	r3, [r4, #0]
 8000cac:	f023 0310 	bic.w	r3, r3, #16
 8000cb0:	8023      	strh	r3, [r4, #0]
 8000cb2:	8823      	ldrh	r3, [r4, #0]
 8000cb4:	065a      	lsls	r2, r3, #25
 8000cb6:	d515      	bpl.n	8000ce4 <_Z13ChangingSpeedv+0x6c>
 8000cb8:	4812      	ldr	r0, [pc, #72]	; (8000d04 <_Z13ChangingSpeedv+0x8c>)
 8000cba:	f7ff fb01 	bl	80002c0 <_ZN4Cube8getSpeedEv>
 8000cbe:	f1a0 010a 	sub.w	r1, r0, #10
 8000cc2:	b209      	sxth	r1, r1
 8000cc4:	480f      	ldr	r0, [pc, #60]	; (8000d04 <_Z13ChangingSpeedv+0x8c>)
 8000cc6:	f7ff faf9 	bl	80002bc <_ZN4Cube8setSpeedEs>
 8000cca:	480e      	ldr	r0, [pc, #56]	; (8000d04 <_Z13ChangingSpeedv+0x8c>)
 8000ccc:	f7ff faf8 	bl	80002c0 <_ZN4Cube8getSpeedEv>
 8000cd0:	2800      	cmp	r0, #0
 8000cd2:	da03      	bge.n	8000cdc <_Z13ChangingSpeedv+0x64>
 8000cd4:	2100      	movs	r1, #0
 8000cd6:	480b      	ldr	r0, [pc, #44]	; (8000d04 <_Z13ChangingSpeedv+0x8c>)
 8000cd8:	f7ff faf0 	bl	80002bc <_ZN4Cube8setSpeedEs>
 8000cdc:	8823      	ldrh	r3, [r4, #0]
 8000cde:	f023 0340 	bic.w	r3, r3, #64	; 0x40
 8000ce2:	8023      	strh	r3, [r4, #0]
 8000ce4:	8823      	ldrh	r3, [r4, #0]
 8000ce6:	079b      	lsls	r3, r3, #30
 8000ce8:	d509      	bpl.n	8000cfe <_Z13ChangingSpeedv+0x86>
 8000cea:	4806      	ldr	r0, [pc, #24]	; (8000d04 <_Z13ChangingSpeedv+0x8c>)
 8000cec:	f7ff fb26 	bl	800033c <_ZN4Cube10changeModeEv>
 8000cf0:	4804      	ldr	r0, [pc, #16]	; (8000d04 <_Z13ChangingSpeedv+0x8c>)
 8000cf2:	f7ff fae7 	bl	80002c4 <_ZN4Cube7getModeEv>
 8000cf6:	8823      	ldrh	r3, [r4, #0]
 8000cf8:	f023 0302 	bic.w	r3, r3, #2
 8000cfc:	8023      	strh	r3, [r4, #0]
 8000cfe:	bd10      	pop	{r4, pc}
 8000d00:	200000f4 	.word	0x200000f4
 8000d04:	200000f8 	.word	0x200000f8

08000d08 <_Z15getRandomNumberii>:
 8000d08:	b538      	push	{r3, r4, r5, lr}
 8000d0a:	4605      	mov	r5, r0
 8000d0c:	460c      	mov	r4, r1
 8000d0e:	f002 f9bf 	bl	8003090 <rand>
 8000d12:	1b61      	subs	r1, r4, r5
 8000d14:	3101      	adds	r1, #1
 8000d16:	fb90 f3f1 	sdiv	r3, r0, r1
 8000d1a:	fb03 0011 	mls	r0, r3, r1, r0
 8000d1e:	4428      	add	r0, r5
 8000d20:	bd38      	pop	{r3, r4, r5, pc}
	...

08000d24 <HAL_ADC_ConvCpltCallback>:
 8000d24:	6802      	ldr	r2, [r0, #0]
 8000d26:	4b0d      	ldr	r3, [pc, #52]	; (8000d5c <HAL_ADC_ConvCpltCallback+0x38>)
 8000d28:	b510      	push	{r4, lr}
 8000d2a:	429a      	cmp	r2, r3
 8000d2c:	4604      	mov	r4, r0
 8000d2e:	d105      	bne.n	8000d3c <HAL_ADC_ConvCpltCallback+0x18>
 8000d30:	480b      	ldr	r0, [pc, #44]	; (8000d60 <HAL_ADC_ConvCpltCallback+0x3c>)
 8000d32:	f000 fb99 	bl	8001468 <HAL_ADC_GetValue>
 8000d36:	f04f 4380 	mov.w	r3, #1073741824	; 0x40000000
 8000d3a:	6418      	str	r0, [r3, #64]	; 0x40
 8000d3c:	6822      	ldr	r2, [r4, #0]
 8000d3e:	4b09      	ldr	r3, [pc, #36]	; (8000d64 <HAL_ADC_ConvCpltCallback+0x40>)
 8000d40:	429a      	cmp	r2, r3
 8000d42:	d109      	bne.n	8000d58 <HAL_ADC_ConvCpltCallback+0x34>
 8000d44:	4808      	ldr	r0, [pc, #32]	; (8000d68 <HAL_ADC_ConvCpltCallback+0x44>)
 8000d46:	f000 fb8f 	bl	8001468 <HAL_ADC_GetValue>
 8000d4a:	f002 f973 	bl	8003034 <srand>
 8000d4e:	e8bd 4010 	ldmia.w	sp!, {r4, lr}
 8000d52:	4805      	ldr	r0, [pc, #20]	; (8000d68 <HAL_ADC_ConvCpltCallback+0x44>)
 8000d54:	f000 bdbe 	b.w	80018d4 <HAL_ADC_DeInit>
 8000d58:	bd10      	pop	{r4, pc}
 8000d5a:	bf00      	nop
 8000d5c:	40012800 	.word	0x40012800
 8000d60:	20000198 	.word	0x20000198
 8000d64:	40012400 	.word	0x40012400
 8000d68:	20000168 	.word	0x20000168

08000d6c <_Z18SystemClock_Configv>:
 8000d6c:	b530      	push	{r4, r5, lr}
 8000d6e:	2410      	movs	r4, #16
 8000d70:	b095      	sub	sp, #84	; 0x54
 8000d72:	4622      	mov	r2, r4
 8000d74:	2100      	movs	r1, #0
 8000d76:	a80d      	add	r0, sp, #52	; 0x34
 8000d78:	f002 f954 	bl	8003024 <memset>
 8000d7c:	2214      	movs	r2, #20
 8000d7e:	2100      	movs	r1, #0
 8000d80:	eb0d 0002 	add.w	r0, sp, r2
 8000d84:	f002 f94e 	bl	8003024 <memset>
 8000d88:	4622      	mov	r2, r4
 8000d8a:	2100      	movs	r1, #0
 8000d8c:	a801      	add	r0, sp, #4
 8000d8e:	f002 f949 	bl	8003024 <memset>
 8000d92:	2402      	movs	r4, #2
 8000d94:	2201      	movs	r2, #1
 8000d96:	f44f 3380 	mov.w	r3, #65536	; 0x10000
 8000d9a:	2500      	movs	r5, #0
 8000d9c:	e9cd 230a 	strd	r2, r3, [sp, #40]	; 0x28
 8000da0:	e9cd 4311 	strd	r4, r3, [sp, #68]	; 0x44
 8000da4:	f44f 13e0 	mov.w	r3, #1835008	; 0x1c0000
 8000da8:	a80a      	add	r0, sp, #40	; 0x28
 8000daa:	920e      	str	r2, [sp, #56]	; 0x38
 8000dac:	9313      	str	r3, [sp, #76]	; 0x4c
 8000dae:	950c      	str	r5, [sp, #48]	; 0x30
 8000db0:	f001 f858 	bl	8001e64 <HAL_RCC_OscConfig>
 8000db4:	230f      	movs	r3, #15
 8000db6:	e9cd 3405 	strd	r3, r4, [sp, #20]
 8000dba:	f44f 6380 	mov.w	r3, #1024	; 0x400
 8000dbe:	4621      	mov	r1, r4
 8000dc0:	a805      	add	r0, sp, #20
 8000dc2:	e9cd 3508 	strd	r3, r5, [sp, #32]
 8000dc6:	9507      	str	r5, [sp, #28]
 8000dc8:	f001 fa22 	bl	8002210 <HAL_RCC_ClockConfig>
 8000dcc:	f44f 4300 	mov.w	r3, #32768	; 0x8000
 8000dd0:	a801      	add	r0, sp, #4
 8000dd2:	9401      	str	r4, [sp, #4]
 8000dd4:	9303      	str	r3, [sp, #12]
 8000dd6:	f001 fad7 	bl	8002388 <HAL_RCCEx_PeriphCLKConfig>
 8000dda:	b015      	add	sp, #84	; 0x54
 8000ddc:	bd30      	pop	{r4, r5, pc}
	...

08000de0 <main>:
 8000de0:	e92d 4ff0 	stmdb	sp!, {r4, r5, r6, r7, r8, r9, sl, fp, lr}
 8000de4:	2510      	movs	r5, #16
 8000de6:	b091      	sub	sp, #68	; 0x44
 8000de8:	f000 fb1a 	bl	8001420 <HAL_Init>
 8000dec:	f7ff ffbe 	bl	8000d6c <_Z18SystemClock_Configv>
 8000df0:	462a      	mov	r2, r5
 8000df2:	2100      	movs	r1, #0
 8000df4:	a809      	add	r0, sp, #36	; 0x24
 8000df6:	f002 f915 	bl	8003024 <memset>
 8000dfa:	4b8b      	ldr	r3, [pc, #556]	; (8001028 <main+0x248>)
 8000dfc:	2107      	movs	r1, #7
 8000dfe:	699a      	ldr	r2, [r3, #24]
 8000e00:	488a      	ldr	r0, [pc, #552]	; (800102c <main+0x24c>)
 8000e02:	f042 0220 	orr.w	r2, r2, #32
 8000e06:	619a      	str	r2, [r3, #24]
 8000e08:	699a      	ldr	r2, [r3, #24]
 8000e0a:	2400      	movs	r4, #0
 8000e0c:	f002 0220 	and.w	r2, r2, #32
 8000e10:	9200      	str	r2, [sp, #0]
 8000e12:	9a00      	ldr	r2, [sp, #0]
 8000e14:	699a      	ldr	r2, [r3, #24]
 8000e16:	f04f 0a01 	mov.w	sl, #1
 8000e1a:	f042 0204 	orr.w	r2, r2, #4
 8000e1e:	619a      	str	r2, [r3, #24]
 8000e20:	699a      	ldr	r2, [r3, #24]
 8000e22:	f04f 0b02 	mov.w	fp, #2
 8000e26:	f002 0204 	and.w	r2, r2, #4
 8000e2a:	9201      	str	r2, [sp, #4]
 8000e2c:	9a01      	ldr	r2, [sp, #4]
 8000e2e:	699a      	ldr	r2, [r3, #24]
 8000e30:	f8df 8234 	ldr.w	r8, [pc, #564]	; 8001068 <main+0x288>
 8000e34:	f042 0208 	orr.w	r2, r2, #8
 8000e38:	619a      	str	r2, [r3, #24]
 8000e3a:	699b      	ldr	r3, [r3, #24]
 8000e3c:	2200      	movs	r2, #0
 8000e3e:	f003 0308 	and.w	r3, r3, #8
 8000e42:	9302      	str	r3, [sp, #8]
 8000e44:	9b02      	ldr	r3, [sp, #8]
 8000e46:	f001 f807 	bl	8001e58 <HAL_GPIO_WritePin>
 8000e4a:	2307      	movs	r3, #7
 8000e4c:	a909      	add	r1, sp, #36	; 0x24
 8000e4e:	4877      	ldr	r0, [pc, #476]	; (800102c <main+0x24c>)
 8000e50:	e9cd 3a09 	strd	r3, sl, [sp, #36]	; 0x24
 8000e54:	e9cd 4b0b 	strd	r4, fp, [sp, #44]	; 0x2c
 8000e58:	f000 feb4 	bl	8001bc4 <HAL_GPIO_Init>
 8000e5c:	4b74      	ldr	r3, [pc, #464]	; (8001030 <main+0x250>)
 8000e5e:	4640      	mov	r0, r8
 8000e60:	f8c8 3000 	str.w	r3, [r8]
 8000e64:	f44f 2360 	mov.w	r3, #917504	; 0xe0000
 8000e68:	e9cd 4409 	strd	r4, r4, [sp, #36]	; 0x24
 8000e6c:	f8c8 301c 	str.w	r3, [r8, #28]
 8000e70:	940b      	str	r4, [sp, #44]	; 0x2c
 8000e72:	f8c8 4008 	str.w	r4, [r8, #8]
 8000e76:	f888 400c 	strb.w	r4, [r8, #12]
 8000e7a:	f888 4014 	strb.w	r4, [r8, #20]
 8000e7e:	f8c8 4004 	str.w	r4, [r8, #4]
 8000e82:	f8c8 a010 	str.w	sl, [r8, #16]
 8000e86:	f000 fca7 	bl	80017d8 <HAL_ADC_Init>
 8000e8a:	a909      	add	r1, sp, #36	; 0x24
 8000e8c:	4640      	mov	r0, r8
 8000e8e:	e9cd 5a09 	strd	r5, sl, [sp, #36]	; 0x24
 8000e92:	940b      	str	r4, [sp, #44]	; 0x2c
 8000e94:	f000 fb62 	bl	800155c <HAL_ADC_ConfigChannel>
 8000e98:	4621      	mov	r1, r4
 8000e9a:	462a      	mov	r2, r5
 8000e9c:	a809      	add	r0, sp, #36	; 0x24
 8000e9e:	f002 f8c1 	bl	8003024 <memset>
 8000ea2:	f240 22cf 	movw	r2, #719	; 0x2cf
 8000ea6:	4b63      	ldr	r3, [pc, #396]	; (8001034 <main+0x254>)
 8000ea8:	f8df 91c0 	ldr.w	r9, [pc, #448]	; 800106c <main+0x28c>
 8000eac:	f44f 5680 	mov.w	r6, #4096	; 0x1000
 8000eb0:	e9c9 3200 	strd	r3, r2, [r9]
 8000eb4:	f64f 52e8 	movw	r2, #65000	; 0xfde8
 8000eb8:	4648      	mov	r0, r9
 8000eba:	e9c9 2403 	strd	r2, r4, [r9, #12]
 8000ebe:	e9cd 4405 	strd	r4, r4, [sp, #20]
 8000ec2:	f8c9 4008 	str.w	r4, [r9, #8]
 8000ec6:	f8c9 4018 	str.w	r4, [r9, #24]
 8000eca:	f001 fcc3 	bl	8002854 <HAL_TIM_Base_Init>
 8000ece:	a909      	add	r1, sp, #36	; 0x24
 8000ed0:	4648      	mov	r0, r9
 8000ed2:	9609      	str	r6, [sp, #36]	; 0x24
 8000ed4:	f001 fda7 	bl	8002a26 <HAL_TIM_ConfigClockSource>
 8000ed8:	2220      	movs	r2, #32
 8000eda:	a905      	add	r1, sp, #20
 8000edc:	4648      	mov	r0, r9
 8000ede:	e9cd 2405 	strd	r2, r4, [sp, #20]
 8000ee2:	f001 fea7 	bl	8002c34 <HAL_TIMEx_MasterConfigSynchronization>
 8000ee6:	462a      	mov	r2, r5
 8000ee8:	4621      	mov	r1, r4
 8000eea:	a805      	add	r0, sp, #20
 8000eec:	f002 f89a 	bl	8003024 <memset>
 8000ef0:	4621      	mov	r1, r4
 8000ef2:	221c      	movs	r2, #28
 8000ef4:	a809      	add	r0, sp, #36	; 0x24
 8000ef6:	e9cd 4403 	strd	r4, r4, [sp, #12]
 8000efa:	f002 f893 	bl	8003024 <memset>
 8000efe:	f04f 4280 	mov.w	r2, #1073741824	; 0x40000000
 8000f02:	4d4d      	ldr	r5, [pc, #308]	; (8001038 <main+0x258>)
 8000f04:	4f4d      	ldr	r7, [pc, #308]	; (800103c <main+0x25c>)
 8000f06:	e9c5 2a00 	strd	r2, sl, [r5]
 8000f0a:	f640 72fe 	movw	r2, #4094	; 0xffe
 8000f0e:	4628      	mov	r0, r5
 8000f10:	e9c5 2403 	strd	r2, r4, [r5, #12]
 8000f14:	60ac      	str	r4, [r5, #8]
 8000f16:	61ac      	str	r4, [r5, #24]
 8000f18:	f001 fc9c 	bl	8002854 <HAL_TIM_Base_Init>
 8000f1c:	a905      	add	r1, sp, #20
 8000f1e:	4628      	mov	r0, r5
 8000f20:	9605      	str	r6, [sp, #20]
 8000f22:	f001 fd80 	bl	8002a26 <HAL_TIM_ConfigClockSource>
 8000f26:	4628      	mov	r0, r5
 8000f28:	f001 fcc0 	bl	80028ac <HAL_TIM_PWM_Init>
 8000f2c:	4628      	mov	r0, r5
 8000f2e:	a903      	add	r1, sp, #12
 8000f30:	e9cd 4403 	strd	r4, r4, [sp, #12]
 8000f34:	f001 fe7e 	bl	8002c34 <HAL_TIMEx_MasterConfigSynchronization>
 8000f38:	2270      	movs	r2, #112	; 0x70
 8000f3a:	a909      	add	r1, sp, #36	; 0x24
 8000f3c:	e9cd 2409 	strd	r2, r4, [sp, #36]	; 0x24
 8000f40:	4628      	mov	r0, r5
 8000f42:	220c      	movs	r2, #12
 8000f44:	940b      	str	r4, [sp, #44]	; 0x2c
 8000f46:	940d      	str	r4, [sp, #52]	; 0x34
 8000f48:	f001 fd08 	bl	800295c <HAL_TIM_PWM_ConfigChannel>
 8000f4c:	4628      	mov	r0, r5
 8000f4e:	f000 f973 	bl	8001238 <HAL_TIM_MspPostInit>
 8000f52:	4e3b      	ldr	r6, [pc, #236]	; (8001040 <main+0x260>)
 8000f54:	4a3b      	ldr	r2, [pc, #236]	; (8001044 <main+0x264>)
 8000f56:	4630      	mov	r0, r6
 8000f58:	6032      	str	r2, [r6, #0]
 8000f5a:	f44f 2200 	mov.w	r2, #524288	; 0x80000
 8000f5e:	60b4      	str	r4, [r6, #8]
 8000f60:	7334      	strb	r4, [r6, #12]
 8000f62:	7534      	strb	r4, [r6, #20]
 8000f64:	61f2      	str	r2, [r6, #28]
 8000f66:	6074      	str	r4, [r6, #4]
 8000f68:	e9cd 4409 	strd	r4, r4, [sp, #36]	; 0x24
 8000f6c:	940b      	str	r4, [sp, #44]	; 0x2c
 8000f6e:	f8c6 a010 	str.w	sl, [r6, #16]
 8000f72:	f000 fc31 	bl	80017d8 <HAL_ADC_Init>
 8000f76:	2209      	movs	r2, #9
 8000f78:	4630      	mov	r0, r6
 8000f7a:	a909      	add	r1, sp, #36	; 0x24
 8000f7c:	e9cd 2a09 	strd	r2, sl, [sp, #36]	; 0x24
 8000f80:	940b      	str	r4, [sp, #44]	; 0x2c
 8000f82:	f000 faeb 	bl	800155c <HAL_ADC_ConfigChannel>
 8000f86:	f44f 32e1 	mov.w	r2, #115200	; 0x1c200
 8000f8a:	492f      	ldr	r1, [pc, #188]	; (8001048 <main+0x268>)
 8000f8c:	4638      	mov	r0, r7
 8000f8e:	e9c7 1200 	strd	r1, r2, [r7]
 8000f92:	210c      	movs	r1, #12
 8000f94:	e9c7 4402 	strd	r4, r4, [r7, #8]
 8000f98:	e9c7 1405 	strd	r1, r4, [r7, #20]
 8000f9c:	613c      	str	r4, [r7, #16]
 8000f9e:	61fc      	str	r4, [r7, #28]
 8000fa0:	f001 fec0 	bl	8002d24 <HAL_UART_Init>
 8000fa4:	4648      	mov	r0, r9
 8000fa6:	f001 fb4f 	bl	8002648 <HAL_TIM_Base_Start>
 8000faa:	210c      	movs	r1, #12
 8000fac:	4628      	mov	r0, r5
 8000fae:	f001 fe3f 	bl	8002c30 <HAL_TIM_PWM_Start_IT>
 8000fb2:	4630      	mov	r0, r6
 8000fb4:	f000 fcee 	bl	8001994 <HAL_ADCEx_Calibration_Start>
 8000fb8:	4630      	mov	r0, r6
 8000fba:	f000 fb85 	bl	80016c8 <HAL_ADC_Start_IT>
 8000fbe:	4640      	mov	r0, r8
 8000fc0:	f000 fb82 	bl	80016c8 <HAL_ADC_Start_IT>
 8000fc4:	4b1b      	ldr	r3, [pc, #108]	; (8001034 <main+0x254>)
 8000fc6:	465a      	mov	r2, fp
 8000fc8:	4920      	ldr	r1, [pc, #128]	; (800104c <main+0x26c>)
 8000fca:	f8c3 a014 	str.w	sl, [r3, #20]
 8000fce:	4638      	mov	r0, r7
 8000fd0:	f001 fef5 	bl	8002dbe <HAL_UART_Receive_IT>
 8000fd4:	481e      	ldr	r0, [pc, #120]	; (8001050 <main+0x270>)
 8000fd6:	f7ff f8b9 	bl	800014c <strlen>
 8000fda:	491d      	ldr	r1, [pc, #116]	; (8001050 <main+0x270>)
 8000fdc:	b2c2      	uxtb	r2, r0
 8000fde:	481d      	ldr	r0, [pc, #116]	; (8001054 <main+0x274>)
 8000fe0:	f7ff facb 	bl	800057a <_ZN4Cube13setTextStringEPch>
 8000fe4:	4e19      	ldr	r6, [pc, #100]	; (800104c <main+0x26c>)
 8000fe6:	4d1c      	ldr	r5, [pc, #112]	; (8001058 <main+0x278>)
 8000fe8:	4c1a      	ldr	r4, [pc, #104]	; (8001054 <main+0x274>)
 8000fea:	8833      	ldrh	r3, [r6, #0]
 8000fec:	05da      	lsls	r2, r3, #23
 8000fee:	d510      	bpl.n	8001012 <main+0x232>
 8000ff0:	f423 7380 	bic.w	r3, r3, #256	; 0x100
 8000ff4:	8033      	strh	r3, [r6, #0]
 8000ff6:	4b19      	ldr	r3, [pc, #100]	; (800105c <main+0x27c>)
 8000ff8:	4620      	mov	r0, r4
 8000ffa:	781a      	ldrb	r2, [r3, #0]
 8000ffc:	f082 0101 	eor.w	r1, r2, #1
 8001000:	7019      	strb	r1, [r3, #0]
 8001002:	4b17      	ldr	r3, [pc, #92]	; (8001060 <main+0x280>)
 8001004:	4917      	ldr	r1, [pc, #92]	; (8001064 <main+0x284>)
 8001006:	2a01      	cmp	r2, #1
 8001008:	bf08      	it	eq
 800100a:	460b      	moveq	r3, r1
 800100c:	602b      	str	r3, [r5, #0]
 800100e:	f7ff f995 	bl	800033c <_ZN4Cube10changeModeEv>
 8001012:	682b      	ldr	r3, [r5, #0]
 8001014:	4798      	blx	r3
 8001016:	e9d4 3000 	ldrd	r3, r0, [r4]
 800101a:	eb04 0060 	add.w	r0, r4, r0, asr #1
 800101e:	4798      	blx	r3
 8001020:	480c      	ldr	r0, [pc, #48]	; (8001054 <main+0x274>)
 8001022:	f7ff f8ef 	bl	8000204 <_ZN4Cube10printFrameEv>
 8001026:	e7e0      	b.n	8000fea <main+0x20a>
 8001028:	40021000 	.word	0x40021000
 800102c:	40010800 	.word	0x40010800
 8001030:	40012400 	.word	0x40012400
 8001034:	40000400 	.word	0x40000400
 8001038:	200001c8 	.word	0x200001c8
 800103c:	20000258 	.word	0x20000258
 8001040:	20000198 	.word	0x20000198
 8001044:	40012800 	.word	0x40012800
 8001048:	40004800 	.word	0x40004800
 800104c:	200000f4 	.word	0x200000f4
 8001050:	20000004 	.word	0x20000004
 8001054:	200000f8 	.word	0x200000f8
 8001058:	20000000 	.word	0x20000000
 800105c:	200000f6 	.word	0x200000f6
 8001060:	08000c41 	.word	0x08000c41
 8001064:	08000c79 	.word	0x08000c79
 8001068:	20000168 	.word	0x20000168
 800106c:	20000210 	.word	0x20000210

08001070 <_GLOBAL__sub_I_hadc1>:
 8001070:	4b11      	ldr	r3, [pc, #68]	; (80010b8 <_GLOBAL__sub_I_hadc1+0x48>)
 8001072:	4a12      	ldr	r2, [pc, #72]	; (80010bc <_GLOBAL__sub_I_hadc1+0x4c>)
 8001074:	b570      	push	{r4, r5, r6, lr}
 8001076:	601a      	str	r2, [r3, #0]
 8001078:	2200      	movs	r2, #0
 800107a:	605a      	str	r2, [r3, #4]
 800107c:	4a10      	ldr	r2, [pc, #64]	; (80010c0 <_GLOBAL__sub_I_hadc1+0x50>)
 800107e:	f103 0508 	add.w	r5, r3, #8
 8001082:	f102 0640 	add.w	r6, r2, #64	; 0x40
 8001086:	462c      	mov	r4, r5
 8001088:	6810      	ldr	r0, [r2, #0]
 800108a:	6851      	ldr	r1, [r2, #4]
 800108c:	3208      	adds	r2, #8
 800108e:	c403      	stmia	r4!, {r0, r1}
 8001090:	42b2      	cmp	r2, r6
 8001092:	4625      	mov	r5, r4
 8001094:	d1f7      	bne.n	8001086 <_GLOBAL__sub_I_hadc1+0x16>
 8001096:	f240 1205 	movw	r2, #261	; 0x105
 800109a:	f8a3 2048 	strh.w	r2, [r3, #72]	; 0x48
 800109e:	2200      	movs	r2, #0
 80010a0:	f44f 7196 	mov.w	r1, #300	; 0x12c
 80010a4:	f8a3 2054 	strh.w	r2, [r3, #84]	; 0x54
 80010a8:	f883 2057 	strb.w	r2, [r3, #87]	; 0x57
 80010ac:	6699      	str	r1, [r3, #104]	; 0x68
 80010ae:	f8a3 206c 	strh.w	r2, [r3, #108]	; 0x6c
 80010b2:	f883 206e 	strb.w	r2, [r3, #110]	; 0x6e
 80010b6:	bd70      	pop	{r4, r5, r6, pc}
 80010b8:	200000f8 	.word	0x200000f8
 80010bc:	0800015d 	.word	0x0800015d
 80010c0:	08004160 	.word	0x08004160

080010c4 <HAL_MspInit>:
 80010c4:	4b0e      	ldr	r3, [pc, #56]	; (8001100 <HAL_MspInit+0x3c>)
 80010c6:	b082      	sub	sp, #8
 80010c8:	699a      	ldr	r2, [r3, #24]
 80010ca:	f042 0201 	orr.w	r2, r2, #1
 80010ce:	619a      	str	r2, [r3, #24]
 80010d0:	699a      	ldr	r2, [r3, #24]
 80010d2:	f002 0201 	and.w	r2, r2, #1
 80010d6:	9200      	str	r2, [sp, #0]
 80010d8:	9a00      	ldr	r2, [sp, #0]
 80010da:	69da      	ldr	r2, [r3, #28]
 80010dc:	f042 5280 	orr.w	r2, r2, #268435456	; 0x10000000
 80010e0:	61da      	str	r2, [r3, #28]
 80010e2:	69db      	ldr	r3, [r3, #28]
 80010e4:	4a07      	ldr	r2, [pc, #28]	; (8001104 <HAL_MspInit+0x40>)
 80010e6:	f003 5380 	and.w	r3, r3, #268435456	; 0x10000000
 80010ea:	9301      	str	r3, [sp, #4]
 80010ec:	9b01      	ldr	r3, [sp, #4]
 80010ee:	6853      	ldr	r3, [r2, #4]
 80010f0:	f023 63e0 	bic.w	r3, r3, #117440512	; 0x7000000
 80010f4:	f043 7300 	orr.w	r3, r3, #33554432	; 0x2000000
 80010f8:	6053      	str	r3, [r2, #4]
 80010fa:	b002      	add	sp, #8
 80010fc:	4770      	bx	lr
 80010fe:	bf00      	nop
 8001100:	40021000 	.word	0x40021000
 8001104:	40010000 	.word	0x40010000

08001108 <HAL_ADC_MspInit>:
 8001108:	2210      	movs	r2, #16
 800110a:	b510      	push	{r4, lr}
 800110c:	4604      	mov	r4, r0
 800110e:	b088      	sub	sp, #32
 8001110:	eb0d 0002 	add.w	r0, sp, r2
 8001114:	2100      	movs	r1, #0
 8001116:	f001 ff85 	bl	8003024 <memset>
 800111a:	6823      	ldr	r3, [r4, #0]
 800111c:	4a1a      	ldr	r2, [pc, #104]	; (8001188 <HAL_ADC_MspInit+0x80>)
 800111e:	4293      	cmp	r3, r2
 8001120:	d113      	bne.n	800114a <HAL_ADC_MspInit+0x42>
 8001122:	4b1a      	ldr	r3, [pc, #104]	; (800118c <HAL_ADC_MspInit+0x84>)
 8001124:	699a      	ldr	r2, [r3, #24]
 8001126:	f442 7200 	orr.w	r2, r2, #512	; 0x200
 800112a:	619a      	str	r2, [r3, #24]
 800112c:	699b      	ldr	r3, [r3, #24]
 800112e:	f403 7300 	and.w	r3, r3, #512	; 0x200
 8001132:	9301      	str	r3, [sp, #4]
 8001134:	9b01      	ldr	r3, [sp, #4]
 8001136:	2200      	movs	r2, #0
 8001138:	2012      	movs	r0, #18
 800113a:	4611      	mov	r1, r2
 800113c:	f000 fca6 	bl	8001a8c <HAL_NVIC_SetPriority>
 8001140:	2012      	movs	r0, #18
 8001142:	f000 fcd5 	bl	8001af0 <HAL_NVIC_EnableIRQ>
 8001146:	b008      	add	sp, #32
 8001148:	bd10      	pop	{r4, pc}
 800114a:	4a11      	ldr	r2, [pc, #68]	; (8001190 <HAL_ADC_MspInit+0x88>)
 800114c:	4293      	cmp	r3, r2
 800114e:	d1fa      	bne.n	8001146 <HAL_ADC_MspInit+0x3e>
 8001150:	4b0e      	ldr	r3, [pc, #56]	; (800118c <HAL_ADC_MspInit+0x84>)
 8001152:	4810      	ldr	r0, [pc, #64]	; (8001194 <HAL_ADC_MspInit+0x8c>)
 8001154:	699a      	ldr	r2, [r3, #24]
 8001156:	a904      	add	r1, sp, #16
 8001158:	f442 6280 	orr.w	r2, r2, #1024	; 0x400
 800115c:	619a      	str	r2, [r3, #24]
 800115e:	699a      	ldr	r2, [r3, #24]
 8001160:	f402 6280 	and.w	r2, r2, #1024	; 0x400
 8001164:	9202      	str	r2, [sp, #8]
 8001166:	9a02      	ldr	r2, [sp, #8]
 8001168:	699a      	ldr	r2, [r3, #24]
 800116a:	f042 0208 	orr.w	r2, r2, #8
 800116e:	619a      	str	r2, [r3, #24]
 8001170:	699b      	ldr	r3, [r3, #24]
 8001172:	2202      	movs	r2, #2
 8001174:	f003 0308 	and.w	r3, r3, #8
 8001178:	9303      	str	r3, [sp, #12]
 800117a:	9b03      	ldr	r3, [sp, #12]
 800117c:	2303      	movs	r3, #3
 800117e:	e9cd 2304 	strd	r2, r3, [sp, #16]
 8001182:	f000 fd1f 	bl	8001bc4 <HAL_GPIO_Init>
 8001186:	e7d6      	b.n	8001136 <HAL_ADC_MspInit+0x2e>
 8001188:	40012400 	.word	0x40012400
 800118c:	40021000 	.word	0x40021000
 8001190:	40012800 	.word	0x40012800
 8001194:	40010c00 	.word	0x40010c00

08001198 <HAL_ADC_MspDeInit>:
 8001198:	6803      	ldr	r3, [r0, #0]
 800119a:	4a0c      	ldr	r2, [pc, #48]	; (80011cc <HAL_ADC_MspDeInit+0x34>)
 800119c:	4293      	cmp	r3, r2
 800119e:	d106      	bne.n	80011ae <HAL_ADC_MspDeInit+0x16>
 80011a0:	f502 426c 	add.w	r2, r2, #60416	; 0xec00
 80011a4:	6993      	ldr	r3, [r2, #24]
 80011a6:	f423 7300 	bic.w	r3, r3, #512	; 0x200
 80011aa:	6193      	str	r3, [r2, #24]
 80011ac:	4770      	bx	lr
 80011ae:	4a08      	ldr	r2, [pc, #32]	; (80011d0 <HAL_ADC_MspDeInit+0x38>)
 80011b0:	4293      	cmp	r3, r2
 80011b2:	d109      	bne.n	80011c8 <HAL_ADC_MspDeInit+0x30>
 80011b4:	f502 4268 	add.w	r2, r2, #59392	; 0xe800
 80011b8:	6993      	ldr	r3, [r2, #24]
 80011ba:	2102      	movs	r1, #2
 80011bc:	f423 6380 	bic.w	r3, r3, #1024	; 0x400
 80011c0:	4804      	ldr	r0, [pc, #16]	; (80011d4 <HAL_ADC_MspDeInit+0x3c>)
 80011c2:	6193      	str	r3, [r2, #24]
 80011c4:	f000 bdda 	b.w	8001d7c <HAL_GPIO_DeInit>
 80011c8:	4770      	bx	lr
 80011ca:	bf00      	nop
 80011cc:	40012400 	.word	0x40012400
 80011d0:	40012800 	.word	0x40012800
 80011d4:	40010c00 	.word	0x40010c00

080011d8 <HAL_TIM_Base_MspInit>:
 80011d8:	6803      	ldr	r3, [r0, #0]
 80011da:	b507      	push	{r0, r1, r2, lr}
 80011dc:	f1b3 4f80 	cmp.w	r3, #1073741824	; 0x40000000
 80011e0:	d10d      	bne.n	80011fe <HAL_TIM_Base_MspInit+0x26>
 80011e2:	f503 3304 	add.w	r3, r3, #135168	; 0x21000
 80011e6:	69da      	ldr	r2, [r3, #28]
 80011e8:	f042 0201 	orr.w	r2, r2, #1
 80011ec:	61da      	str	r2, [r3, #28]
 80011ee:	69db      	ldr	r3, [r3, #28]
 80011f0:	f003 0301 	and.w	r3, r3, #1
 80011f4:	9300      	str	r3, [sp, #0]
 80011f6:	9b00      	ldr	r3, [sp, #0]
 80011f8:	b003      	add	sp, #12
 80011fa:	f85d fb04 	ldr.w	pc, [sp], #4
 80011fe:	4a0c      	ldr	r2, [pc, #48]	; (8001230 <HAL_TIM_Base_MspInit+0x58>)
 8001200:	4293      	cmp	r3, r2
 8001202:	d1f9      	bne.n	80011f8 <HAL_TIM_Base_MspInit+0x20>
 8001204:	4b0b      	ldr	r3, [pc, #44]	; (8001234 <HAL_TIM_Base_MspInit+0x5c>)
 8001206:	201d      	movs	r0, #29
 8001208:	69da      	ldr	r2, [r3, #28]
 800120a:	f042 0202 	orr.w	r2, r2, #2
 800120e:	61da      	str	r2, [r3, #28]
 8001210:	2200      	movs	r2, #0
 8001212:	69db      	ldr	r3, [r3, #28]
 8001214:	4611      	mov	r1, r2
 8001216:	f003 0302 	and.w	r3, r3, #2
 800121a:	9301      	str	r3, [sp, #4]
 800121c:	9b01      	ldr	r3, [sp, #4]
 800121e:	f000 fc35 	bl	8001a8c <HAL_NVIC_SetPriority>
 8001222:	201d      	movs	r0, #29
 8001224:	b003      	add	sp, #12
 8001226:	f85d eb04 	ldr.w	lr, [sp], #4
 800122a:	f000 bc61 	b.w	8001af0 <HAL_NVIC_EnableIRQ>
 800122e:	bf00      	nop
 8001230:	40000400 	.word	0x40000400
 8001234:	40021000 	.word	0x40021000

08001238 <HAL_TIM_MspPostInit>:
 8001238:	b510      	push	{r4, lr}
 800123a:	4604      	mov	r4, r0
 800123c:	b086      	sub	sp, #24
 800123e:	2210      	movs	r2, #16
 8001240:	2100      	movs	r1, #0
 8001242:	a802      	add	r0, sp, #8
 8001244:	f001 feee 	bl	8003024 <memset>
 8001248:	6823      	ldr	r3, [r4, #0]
 800124a:	f1b3 4f80 	cmp.w	r3, #1073741824	; 0x40000000
 800124e:	d113      	bne.n	8001278 <HAL_TIM_MspPostInit+0x40>
 8001250:	f503 3304 	add.w	r3, r3, #135168	; 0x21000
 8001254:	699a      	ldr	r2, [r3, #24]
 8001256:	4809      	ldr	r0, [pc, #36]	; (800127c <HAL_TIM_MspPostInit+0x44>)
 8001258:	f042 0204 	orr.w	r2, r2, #4
 800125c:	619a      	str	r2, [r3, #24]
 800125e:	699b      	ldr	r3, [r3, #24]
 8001260:	2208      	movs	r2, #8
 8001262:	f003 0304 	and.w	r3, r3, #4
 8001266:	9301      	str	r3, [sp, #4]
 8001268:	9b01      	ldr	r3, [sp, #4]
 800126a:	2302      	movs	r3, #2
 800126c:	a902      	add	r1, sp, #8
 800126e:	e9cd 2302 	strd	r2, r3, [sp, #8]
 8001272:	9305      	str	r3, [sp, #20]
 8001274:	f000 fca6 	bl	8001bc4 <HAL_GPIO_Init>
 8001278:	b006      	add	sp, #24
 800127a:	bd10      	pop	{r4, pc}
 800127c:	40010800 	.word	0x40010800

08001280 <HAL_UART_MspInit>:
 8001280:	b510      	push	{r4, lr}
 8001282:	4604      	mov	r4, r0
 8001284:	b086      	sub	sp, #24
 8001286:	2210      	movs	r2, #16
 8001288:	2100      	movs	r1, #0
 800128a:	a802      	add	r0, sp, #8
 800128c:	f001 feca 	bl	8003024 <memset>
 8001290:	6822      	ldr	r2, [r4, #0]
 8001292:	4b1b      	ldr	r3, [pc, #108]	; (8001300 <HAL_UART_MspInit+0x80>)
 8001294:	429a      	cmp	r2, r3
 8001296:	d130      	bne.n	80012fa <HAL_UART_MspInit+0x7a>
 8001298:	f503 33e4 	add.w	r3, r3, #116736	; 0x1c800
 800129c:	69da      	ldr	r2, [r3, #28]
 800129e:	4819      	ldr	r0, [pc, #100]	; (8001304 <HAL_UART_MspInit+0x84>)
 80012a0:	f442 2280 	orr.w	r2, r2, #262144	; 0x40000
 80012a4:	61da      	str	r2, [r3, #28]
 80012a6:	69da      	ldr	r2, [r3, #28]
 80012a8:	a902      	add	r1, sp, #8
 80012aa:	f402 2280 	and.w	r2, r2, #262144	; 0x40000
 80012ae:	9200      	str	r2, [sp, #0]
 80012b0:	9a00      	ldr	r2, [sp, #0]
 80012b2:	699a      	ldr	r2, [r3, #24]
 80012b4:	2400      	movs	r4, #0
 80012b6:	f042 0208 	orr.w	r2, r2, #8
 80012ba:	619a      	str	r2, [r3, #24]
 80012bc:	699b      	ldr	r3, [r3, #24]
 80012be:	f44f 6280 	mov.w	r2, #1024	; 0x400
 80012c2:	f003 0308 	and.w	r3, r3, #8
 80012c6:	9301      	str	r3, [sp, #4]
 80012c8:	9b01      	ldr	r3, [sp, #4]
 80012ca:	2302      	movs	r3, #2
 80012cc:	e9cd 2302 	strd	r2, r3, [sp, #8]
 80012d0:	2303      	movs	r3, #3
 80012d2:	9305      	str	r3, [sp, #20]
 80012d4:	f000 fc76 	bl	8001bc4 <HAL_GPIO_Init>
 80012d8:	f44f 6300 	mov.w	r3, #2048	; 0x800
 80012dc:	4809      	ldr	r0, [pc, #36]	; (8001304 <HAL_UART_MspInit+0x84>)
 80012de:	a902      	add	r1, sp, #8
 80012e0:	e9cd 3402 	strd	r3, r4, [sp, #8]
 80012e4:	9404      	str	r4, [sp, #16]
 80012e6:	f000 fc6d 	bl	8001bc4 <HAL_GPIO_Init>
 80012ea:	2027      	movs	r0, #39	; 0x27
 80012ec:	4622      	mov	r2, r4
 80012ee:	4621      	mov	r1, r4
 80012f0:	f000 fbcc 	bl	8001a8c <HAL_NVIC_SetPriority>
 80012f4:	2027      	movs	r0, #39	; 0x27
 80012f6:	f000 fbfb 	bl	8001af0 <HAL_NVIC_EnableIRQ>
 80012fa:	b006      	add	sp, #24
 80012fc:	bd10      	pop	{r4, pc}
 80012fe:	bf00      	nop
 8001300:	40004800 	.word	0x40004800
 8001304:	40010c00 	.word	0x40010c00

08001308 <NMI_Handler>:
 8001308:	4770      	bx	lr

0800130a <HardFault_Handler>:
 800130a:	e7fe      	b.n	800130a <HardFault_Handler>

0800130c <MemManage_Handler>:
 800130c:	e7fe      	b.n	800130c <MemManage_Handler>

0800130e <BusFault_Handler>:
 800130e:	e7fe      	b.n	800130e <BusFault_Handler>

08001310 <UsageFault_Handler>:
 8001310:	e7fe      	b.n	8001310 <UsageFault_Handler>

08001312 <SVC_Handler>:
 8001312:	4770      	bx	lr

08001314 <DebugMon_Handler>:
 8001314:	4770      	bx	lr

08001316 <PendSV_Handler>:
 8001316:	4770      	bx	lr

08001318 <SysTick_Handler>:
 8001318:	f000 b894 	b.w	8001444 <HAL_IncTick>

0800131c <ADC1_2_IRQHandler>:
 800131c:	b508      	push	{r3, lr}
 800131e:	4804      	ldr	r0, [pc, #16]	; (8001330 <ADC1_2_IRQHandler+0x14>)
 8001320:	f000 f8a6 	bl	8001470 <HAL_ADC_IRQHandler>
 8001324:	e8bd 4008 	ldmia.w	sp!, {r3, lr}
 8001328:	4802      	ldr	r0, [pc, #8]	; (8001334 <ADC1_2_IRQHandler+0x18>)
 800132a:	f000 b8a1 	b.w	8001470 <HAL_ADC_IRQHandler>
 800132e:	bf00      	nop
 8001330:	20000168 	.word	0x20000168
 8001334:	20000198 	.word	0x20000198

08001338 <TIM3_IRQHandler>:
 8001338:	4801      	ldr	r0, [pc, #4]	; (8001340 <TIM3_IRQHandler+0x8>)
 800133a:	f001 b9b1 	b.w	80026a0 <HAL_TIM_IRQHandler>
 800133e:	bf00      	nop
 8001340:	20000210 	.word	0x20000210

08001344 <USART3_IRQHandler>:
 8001344:	b513      	push	{r0, r1, r4, lr}
 8001346:	4c0d      	ldr	r4, [pc, #52]	; (800137c <USART3_IRQHandler+0x38>)
 8001348:	6823      	ldr	r3, [r4, #0]
 800134a:	681b      	ldr	r3, [r3, #0]
 800134c:	069b      	lsls	r3, r3, #26
 800134e:	d50f      	bpl.n	8001370 <USART3_IRQHandler+0x2c>
 8001350:	480b      	ldr	r0, [pc, #44]	; (8001380 <USART3_IRQHandler+0x3c>)
 8001352:	f7fe ffb7 	bl	80002c4 <_ZN4Cube7getModeEv>
 8001356:	2201      	movs	r2, #1
 8001358:	f88d 0007 	strb.w	r0, [sp, #7]
 800135c:	f10d 0107 	add.w	r1, sp, #7
 8001360:	4620      	mov	r0, r4
 8001362:	f001 fd0d 	bl	8002d80 <HAL_UART_Transmit_IT>
 8001366:	2202      	movs	r2, #2
 8001368:	4620      	mov	r0, r4
 800136a:	4906      	ldr	r1, [pc, #24]	; (8001384 <USART3_IRQHandler+0x40>)
 800136c:	f001 fd27 	bl	8002dbe <HAL_UART_Receive_IT>
 8001370:	4802      	ldr	r0, [pc, #8]	; (800137c <USART3_IRQHandler+0x38>)
 8001372:	f001 fd89 	bl	8002e88 <HAL_UART_IRQHandler>
 8001376:	b002      	add	sp, #8
 8001378:	bd10      	pop	{r4, pc}
 800137a:	bf00      	nop
 800137c:	20000258 	.word	0x20000258
 8001380:	200000f8 	.word	0x200000f8
 8001384:	200000f4 	.word	0x200000f4

08001388 <SystemInit>:
 8001388:	4770      	bx	lr
	...

0800138c <Reset_Handler>:
 800138c:	2100      	movs	r1, #0
 800138e:	e003      	b.n	8001398 <LoopCopyDataInit>

08001390 <CopyDataInit>:
 8001390:	4b0b      	ldr	r3, [pc, #44]	; (80013c0 <LoopFillZerobss+0x14>)
 8001392:	585b      	ldr	r3, [r3, r1]
 8001394:	5043      	str	r3, [r0, r1]
 8001396:	3104      	adds	r1, #4

08001398 <LoopCopyDataInit>:
 8001398:	480a      	ldr	r0, [pc, #40]	; (80013c4 <LoopFillZerobss+0x18>)
 800139a:	4b0b      	ldr	r3, [pc, #44]	; (80013c8 <LoopFillZerobss+0x1c>)
 800139c:	1842      	adds	r2, r0, r1
 800139e:	429a      	cmp	r2, r3
 80013a0:	d3f6      	bcc.n	8001390 <CopyDataInit>
 80013a2:	4a0a      	ldr	r2, [pc, #40]	; (80013cc <LoopFillZerobss+0x20>)
 80013a4:	e002      	b.n	80013ac <LoopFillZerobss>

080013a6 <FillZerobss>:
 80013a6:	2300      	movs	r3, #0
 80013a8:	f842 3b04 	str.w	r3, [r2], #4

080013ac <LoopFillZerobss>:
 80013ac:	4b08      	ldr	r3, [pc, #32]	; (80013d0 <LoopFillZerobss+0x24>)
 80013ae:	429a      	cmp	r2, r3
 80013b0:	d3f9      	bcc.n	80013a6 <FillZerobss>
 80013b2:	f7ff ffe9 	bl	8001388 <SystemInit>
 80013b6:	f001 fe11 	bl	8002fdc <__libc_init_array>
 80013ba:	f7ff fd11 	bl	8000de0 <main>
 80013be:	4770      	bx	lr
 80013c0:	0800461c 	.word	0x0800461c
 80013c4:	20000000 	.word	0x20000000
 80013c8:	200000d8 	.word	0x200000d8
 80013cc:	200000d8 	.word	0x200000d8
 80013d0:	200002b8 	.word	0x200002b8

080013d4 <CAN1_RX1_IRQHandler>:
 80013d4:	e7fe      	b.n	80013d4 <CAN1_RX1_IRQHandler>
	...

080013d8 <HAL_InitTick>:
 80013d8:	b538      	push	{r3, r4, r5, lr}
 80013da:	4b0e      	ldr	r3, [pc, #56]	; (8001414 <HAL_InitTick+0x3c>)
 80013dc:	4605      	mov	r5, r0
 80013de:	7818      	ldrb	r0, [r3, #0]
 80013e0:	f44f 737a 	mov.w	r3, #1000	; 0x3e8
 80013e4:	fbb3 f3f0 	udiv	r3, r3, r0
 80013e8:	4a0b      	ldr	r2, [pc, #44]	; (8001418 <HAL_InitTick+0x40>)
 80013ea:	6810      	ldr	r0, [r2, #0]
 80013ec:	fbb0 f0f3 	udiv	r0, r0, r3
 80013f0:	f000 fb8c 	bl	8001b0c <HAL_SYSTICK_Config>
 80013f4:	4604      	mov	r4, r0
 80013f6:	b958      	cbnz	r0, 8001410 <HAL_InitTick+0x38>
 80013f8:	2d0f      	cmp	r5, #15
 80013fa:	d809      	bhi.n	8001410 <HAL_InitTick+0x38>
 80013fc:	4602      	mov	r2, r0
 80013fe:	4629      	mov	r1, r5
 8001400:	f04f 30ff 	mov.w	r0, #4294967295
 8001404:	f000 fb42 	bl	8001a8c <HAL_NVIC_SetPriority>
 8001408:	4620      	mov	r0, r4
 800140a:	4b04      	ldr	r3, [pc, #16]	; (800141c <HAL_InitTick+0x44>)
 800140c:	601d      	str	r5, [r3, #0]
 800140e:	bd38      	pop	{r3, r4, r5, pc}
 8001410:	2001      	movs	r0, #1
 8001412:	e7fc      	b.n	800140e <HAL_InitTick+0x36>
 8001414:	2000006c 	.word	0x2000006c
 8001418:	20000068 	.word	0x20000068
 800141c:	20000070 	.word	0x20000070

08001420 <HAL_Init>:
 8001420:	4a07      	ldr	r2, [pc, #28]	; (8001440 <HAL_Init+0x20>)
 8001422:	b508      	push	{r3, lr}
 8001424:	6813      	ldr	r3, [r2, #0]
 8001426:	2003      	movs	r0, #3
 8001428:	f043 0310 	orr.w	r3, r3, #16
 800142c:	6013      	str	r3, [r2, #0]
 800142e:	f000 fb1b 	bl	8001a68 <HAL_NVIC_SetPriorityGrouping>
 8001432:	2000      	movs	r0, #0
 8001434:	f7ff ffd0 	bl	80013d8 <HAL_InitTick>
 8001438:	f7ff fe44 	bl	80010c4 <HAL_MspInit>
 800143c:	2000      	movs	r0, #0
 800143e:	bd08      	pop	{r3, pc}
 8001440:	40022000 	.word	0x40022000

08001444 <HAL_IncTick>:
 8001444:	4a03      	ldr	r2, [pc, #12]	; (8001454 <HAL_IncTick+0x10>)
 8001446:	4b04      	ldr	r3, [pc, #16]	; (8001458 <HAL_IncTick+0x14>)
 8001448:	6811      	ldr	r1, [r2, #0]
 800144a:	781b      	ldrb	r3, [r3, #0]
 800144c:	440b      	add	r3, r1
 800144e:	6013      	str	r3, [r2, #0]
 8001450:	4770      	bx	lr
 8001452:	bf00      	nop
 8001454:	200002a4 	.word	0x200002a4
 8001458:	2000006c 	.word	0x2000006c

0800145c <HAL_GetTick>:
 800145c:	4b01      	ldr	r3, [pc, #4]	; (8001464 <HAL_GetTick+0x8>)
 800145e:	6818      	ldr	r0, [r3, #0]
 8001460:	4770      	bx	lr
 8001462:	bf00      	nop
 8001464:	200002a4 	.word	0x200002a4

08001468 <HAL_ADC_GetValue>:
 8001468:	6803      	ldr	r3, [r0, #0]
 800146a:	6cd8      	ldr	r0, [r3, #76]	; 0x4c
 800146c:	4770      	bx	lr

0800146e <HAL_ADC_LevelOutOfWindowCallback>:
 800146e:	4770      	bx	lr

08001470 <HAL_ADC_IRQHandler>:
 8001470:	6803      	ldr	r3, [r0, #0]
 8001472:	b510      	push	{r4, lr}
 8001474:	685a      	ldr	r2, [r3, #4]
 8001476:	4604      	mov	r4, r0
 8001478:	0690      	lsls	r0, r2, #26
 800147a:	d527      	bpl.n	80014cc <HAL_ADC_IRQHandler+0x5c>
 800147c:	681a      	ldr	r2, [r3, #0]
 800147e:	0791      	lsls	r1, r2, #30
 8001480:	d524      	bpl.n	80014cc <HAL_ADC_IRQHandler+0x5c>
 8001482:	6aa2      	ldr	r2, [r4, #40]	; 0x28
 8001484:	06d2      	lsls	r2, r2, #27
 8001486:	bf5e      	ittt	pl
 8001488:	6aa2      	ldrpl	r2, [r4, #40]	; 0x28
 800148a:	f442 7200 	orrpl.w	r2, r2, #512	; 0x200
 800148e:	62a2      	strpl	r2, [r4, #40]	; 0x28
 8001490:	689a      	ldr	r2, [r3, #8]
 8001492:	f402 2260 	and.w	r2, r2, #917504	; 0xe0000
 8001496:	f5b2 2f60 	cmp.w	r2, #917504	; 0xe0000
 800149a:	d110      	bne.n	80014be <HAL_ADC_IRQHandler+0x4e>
 800149c:	7b22      	ldrb	r2, [r4, #12]
 800149e:	b972      	cbnz	r2, 80014be <HAL_ADC_IRQHandler+0x4e>
 80014a0:	685a      	ldr	r2, [r3, #4]
 80014a2:	f022 0220 	bic.w	r2, r2, #32
 80014a6:	605a      	str	r2, [r3, #4]
 80014a8:	6aa3      	ldr	r3, [r4, #40]	; 0x28
 80014aa:	f423 7380 	bic.w	r3, r3, #256	; 0x100
 80014ae:	62a3      	str	r3, [r4, #40]	; 0x28
 80014b0:	6aa3      	ldr	r3, [r4, #40]	; 0x28
 80014b2:	04db      	lsls	r3, r3, #19
 80014b4:	bf5e      	ittt	pl
 80014b6:	6aa3      	ldrpl	r3, [r4, #40]	; 0x28
 80014b8:	f043 0301 	orrpl.w	r3, r3, #1
 80014bc:	62a3      	strpl	r3, [r4, #40]	; 0x28
 80014be:	4620      	mov	r0, r4
 80014c0:	f7ff fc30 	bl	8000d24 <HAL_ADC_ConvCpltCallback>
 80014c4:	f06f 0212 	mvn.w	r2, #18
 80014c8:	6823      	ldr	r3, [r4, #0]
 80014ca:	601a      	str	r2, [r3, #0]
 80014cc:	6823      	ldr	r3, [r4, #0]
 80014ce:	685a      	ldr	r2, [r3, #4]
 80014d0:	0610      	lsls	r0, r2, #24
 80014d2:	d530      	bpl.n	8001536 <HAL_ADC_IRQHandler+0xc6>
 80014d4:	681a      	ldr	r2, [r3, #0]
 80014d6:	0751      	lsls	r1, r2, #29
 80014d8:	d52d      	bpl.n	8001536 <HAL_ADC_IRQHandler+0xc6>
 80014da:	6aa2      	ldr	r2, [r4, #40]	; 0x28
 80014dc:	06d2      	lsls	r2, r2, #27
 80014de:	bf5e      	ittt	pl
 80014e0:	6aa2      	ldrpl	r2, [r4, #40]	; 0x28
 80014e2:	f442 5200 	orrpl.w	r2, r2, #8192	; 0x2000
 80014e6:	62a2      	strpl	r2, [r4, #40]	; 0x28
 80014e8:	689a      	ldr	r2, [r3, #8]
 80014ea:	f402 42e0 	and.w	r2, r2, #28672	; 0x7000
 80014ee:	f5b2 4fe0 	cmp.w	r2, #28672	; 0x7000
 80014f2:	d00a      	beq.n	800150a <HAL_ADC_IRQHandler+0x9a>
 80014f4:	685a      	ldr	r2, [r3, #4]
 80014f6:	0550      	lsls	r0, r2, #21
 80014f8:	d416      	bmi.n	8001528 <HAL_ADC_IRQHandler+0xb8>
 80014fa:	689a      	ldr	r2, [r3, #8]
 80014fc:	f402 2260 	and.w	r2, r2, #917504	; 0xe0000
 8001500:	f5b2 2f60 	cmp.w	r2, #917504	; 0xe0000
 8001504:	d110      	bne.n	8001528 <HAL_ADC_IRQHandler+0xb8>
 8001506:	7b22      	ldrb	r2, [r4, #12]
 8001508:	b972      	cbnz	r2, 8001528 <HAL_ADC_IRQHandler+0xb8>
 800150a:	685a      	ldr	r2, [r3, #4]
 800150c:	f022 0280 	bic.w	r2, r2, #128	; 0x80
 8001510:	605a      	str	r2, [r3, #4]
 8001512:	6aa3      	ldr	r3, [r4, #40]	; 0x28
 8001514:	f423 5380 	bic.w	r3, r3, #4096	; 0x1000
 8001518:	62a3      	str	r3, [r4, #40]	; 0x28
 800151a:	6aa3      	ldr	r3, [r4, #40]	; 0x28
 800151c:	05d9      	lsls	r1, r3, #23
 800151e:	bf5e      	ittt	pl
 8001520:	6aa3      	ldrpl	r3, [r4, #40]	; 0x28
 8001522:	f043 0301 	orrpl.w	r3, r3, #1
 8001526:	62a3      	strpl	r3, [r4, #40]	; 0x28
 8001528:	4620      	mov	r0, r4
 800152a:	f000 fa9b 	bl	8001a64 <HAL_ADCEx_InjectedConvCpltCallback>
 800152e:	f06f 020c 	mvn.w	r2, #12
 8001532:	6823      	ldr	r3, [r4, #0]
 8001534:	601a      	str	r2, [r3, #0]
 8001536:	6823      	ldr	r3, [r4, #0]
 8001538:	685a      	ldr	r2, [r3, #4]
 800153a:	0652      	lsls	r2, r2, #25
 800153c:	d50d      	bpl.n	800155a <HAL_ADC_IRQHandler+0xea>
 800153e:	681b      	ldr	r3, [r3, #0]
 8001540:	07db      	lsls	r3, r3, #31
 8001542:	d50a      	bpl.n	800155a <HAL_ADC_IRQHandler+0xea>
 8001544:	6aa3      	ldr	r3, [r4, #40]	; 0x28
 8001546:	4620      	mov	r0, r4
 8001548:	f443 3380 	orr.w	r3, r3, #65536	; 0x10000
 800154c:	62a3      	str	r3, [r4, #40]	; 0x28
 800154e:	f7ff ff8e 	bl	800146e <HAL_ADC_LevelOutOfWindowCallback>
 8001552:	f06f 0201 	mvn.w	r2, #1
 8001556:	6823      	ldr	r3, [r4, #0]
 8001558:	601a      	str	r2, [r3, #0]
 800155a:	bd10      	pop	{r4, pc}

0800155c <HAL_ADC_ConfigChannel>:
 800155c:	2300      	movs	r3, #0
 800155e:	b573      	push	{r0, r1, r4, r5, r6, lr}
 8001560:	9301      	str	r3, [sp, #4]
 8001562:	f890 3024 	ldrb.w	r3, [r0, #36]	; 0x24
 8001566:	4604      	mov	r4, r0
 8001568:	2b01      	cmp	r3, #1
 800156a:	d06c      	beq.n	8001646 <HAL_ADC_ConfigChannel+0xea>
 800156c:	2301      	movs	r3, #1
 800156e:	f880 3024 	strb.w	r3, [r0, #36]	; 0x24
 8001572:	684d      	ldr	r5, [r1, #4]
 8001574:	6802      	ldr	r2, [r0, #0]
 8001576:	2d06      	cmp	r5, #6
 8001578:	6808      	ldr	r0, [r1, #0]
 800157a:	eb05 0385 	add.w	r3, r5, r5, lsl #2
 800157e:	d822      	bhi.n	80015c6 <HAL_ADC_ConfigChannel+0x6a>
 8001580:	261f      	movs	r6, #31
 8001582:	6b55      	ldr	r5, [r2, #52]	; 0x34
 8001584:	3b05      	subs	r3, #5
 8001586:	409e      	lsls	r6, r3
 8001588:	ea25 0506 	bic.w	r5, r5, r6
 800158c:	fa00 f303 	lsl.w	r3, r0, r3
 8001590:	432b      	orrs	r3, r5
 8001592:	6353      	str	r3, [r2, #52]	; 0x34
 8001594:	2809      	cmp	r0, #9
 8001596:	688b      	ldr	r3, [r1, #8]
 8001598:	eb00 0540 	add.w	r5, r0, r0, lsl #1
 800159c:	f04f 0107 	mov.w	r1, #7
 80015a0:	d929      	bls.n	80015f6 <HAL_ADC_ConfigChannel+0x9a>
 80015a2:	68d6      	ldr	r6, [r2, #12]
 80015a4:	3d1e      	subs	r5, #30
 80015a6:	40a9      	lsls	r1, r5
 80015a8:	ea26 0101 	bic.w	r1, r6, r1
 80015ac:	40ab      	lsls	r3, r5
 80015ae:	430b      	orrs	r3, r1
 80015b0:	60d3      	str	r3, [r2, #12]
 80015b2:	f1a0 0310 	sub.w	r3, r0, #16
 80015b6:	2b01      	cmp	r3, #1
 80015b8:	d925      	bls.n	8001606 <HAL_ADC_ConfigChannel+0xaa>
 80015ba:	2000      	movs	r0, #0
 80015bc:	2300      	movs	r3, #0
 80015be:	f884 3024 	strb.w	r3, [r4, #36]	; 0x24
 80015c2:	b002      	add	sp, #8
 80015c4:	bd70      	pop	{r4, r5, r6, pc}
 80015c6:	2d0c      	cmp	r5, #12
 80015c8:	f04f 051f 	mov.w	r5, #31
 80015cc:	d809      	bhi.n	80015e2 <HAL_ADC_ConfigChannel+0x86>
 80015ce:	6b16      	ldr	r6, [r2, #48]	; 0x30
 80015d0:	3b23      	subs	r3, #35	; 0x23
 80015d2:	409d      	lsls	r5, r3
 80015d4:	ea26 0505 	bic.w	r5, r6, r5
 80015d8:	fa00 f303 	lsl.w	r3, r0, r3
 80015dc:	432b      	orrs	r3, r5
 80015de:	6313      	str	r3, [r2, #48]	; 0x30
 80015e0:	e7d8      	b.n	8001594 <HAL_ADC_ConfigChannel+0x38>
 80015e2:	6ad6      	ldr	r6, [r2, #44]	; 0x2c
 80015e4:	3b41      	subs	r3, #65	; 0x41
 80015e6:	409d      	lsls	r5, r3
 80015e8:	ea26 0505 	bic.w	r5, r6, r5
 80015ec:	fa00 f303 	lsl.w	r3, r0, r3
 80015f0:	432b      	orrs	r3, r5
 80015f2:	62d3      	str	r3, [r2, #44]	; 0x2c
 80015f4:	e7ce      	b.n	8001594 <HAL_ADC_ConfigChannel+0x38>
 80015f6:	6910      	ldr	r0, [r2, #16]
 80015f8:	40a9      	lsls	r1, r5
 80015fa:	ea20 0101 	bic.w	r1, r0, r1
 80015fe:	40ab      	lsls	r3, r5
 8001600:	430b      	orrs	r3, r1
 8001602:	6113      	str	r3, [r2, #16]
 8001604:	e7d9      	b.n	80015ba <HAL_ADC_ConfigChannel+0x5e>
 8001606:	4b11      	ldr	r3, [pc, #68]	; (800164c <HAL_ADC_ConfigChannel+0xf0>)
 8001608:	429a      	cmp	r2, r3
 800160a:	d116      	bne.n	800163a <HAL_ADC_ConfigChannel+0xde>
 800160c:	6893      	ldr	r3, [r2, #8]
 800160e:	021b      	lsls	r3, r3, #8
 8001610:	d4d3      	bmi.n	80015ba <HAL_ADC_ConfigChannel+0x5e>
 8001612:	6893      	ldr	r3, [r2, #8]
 8001614:	2810      	cmp	r0, #16
 8001616:	f443 0300 	orr.w	r3, r3, #8388608	; 0x800000
 800161a:	6093      	str	r3, [r2, #8]
 800161c:	d1cd      	bne.n	80015ba <HAL_ADC_ConfigChannel+0x5e>
 800161e:	4b0c      	ldr	r3, [pc, #48]	; (8001650 <HAL_ADC_ConfigChannel+0xf4>)
 8001620:	4a0c      	ldr	r2, [pc, #48]	; (8001654 <HAL_ADC_ConfigChannel+0xf8>)
 8001622:	681b      	ldr	r3, [r3, #0]
 8001624:	fbb3 f2f2 	udiv	r2, r3, r2
 8001628:	230a      	movs	r3, #10
 800162a:	4353      	muls	r3, r2
 800162c:	9301      	str	r3, [sp, #4]
 800162e:	9b01      	ldr	r3, [sp, #4]
 8001630:	2b00      	cmp	r3, #0
 8001632:	d0c2      	beq.n	80015ba <HAL_ADC_ConfigChannel+0x5e>
 8001634:	9b01      	ldr	r3, [sp, #4]
 8001636:	3b01      	subs	r3, #1
 8001638:	e7f8      	b.n	800162c <HAL_ADC_ConfigChannel+0xd0>
 800163a:	6aa3      	ldr	r3, [r4, #40]	; 0x28
 800163c:	2001      	movs	r0, #1
 800163e:	f043 0320 	orr.w	r3, r3, #32
 8001642:	62a3      	str	r3, [r4, #40]	; 0x28
 8001644:	e7ba      	b.n	80015bc <HAL_ADC_ConfigChannel+0x60>
 8001646:	2002      	movs	r0, #2
 8001648:	e7bb      	b.n	80015c2 <HAL_ADC_ConfigChannel+0x66>
 800164a:	bf00      	nop
 800164c:	40012400 	.word	0x40012400
 8001650:	20000068 	.word	0x20000068
 8001654:	000f4240 	.word	0x000f4240

08001658 <ADC_Enable>:
 8001658:	2300      	movs	r3, #0
 800165a:	b573      	push	{r0, r1, r4, r5, r6, lr}
 800165c:	9301      	str	r3, [sp, #4]
 800165e:	6803      	ldr	r3, [r0, #0]
 8001660:	4604      	mov	r4, r0
 8001662:	689a      	ldr	r2, [r3, #8]
 8001664:	07d2      	lsls	r2, r2, #31
 8001666:	d502      	bpl.n	800166e <ADC_Enable+0x16>
 8001668:	2000      	movs	r0, #0
 800166a:	b002      	add	sp, #8
 800166c:	bd70      	pop	{r4, r5, r6, pc}
 800166e:	689a      	ldr	r2, [r3, #8]
 8001670:	f042 0201 	orr.w	r2, r2, #1
 8001674:	609a      	str	r2, [r3, #8]
 8001676:	4b12      	ldr	r3, [pc, #72]	; (80016c0 <ADC_Enable+0x68>)
 8001678:	4a12      	ldr	r2, [pc, #72]	; (80016c4 <ADC_Enable+0x6c>)
 800167a:	681b      	ldr	r3, [r3, #0]
 800167c:	fbb3 f3f2 	udiv	r3, r3, r2
 8001680:	9301      	str	r3, [sp, #4]
 8001682:	9b01      	ldr	r3, [sp, #4]
 8001684:	b9c3      	cbnz	r3, 80016b8 <ADC_Enable+0x60>
 8001686:	f7ff fee9 	bl	800145c <HAL_GetTick>
 800168a:	4606      	mov	r6, r0
 800168c:	6823      	ldr	r3, [r4, #0]
 800168e:	689d      	ldr	r5, [r3, #8]
 8001690:	f015 0501 	ands.w	r5, r5, #1
 8001694:	d1e8      	bne.n	8001668 <ADC_Enable+0x10>
 8001696:	f7ff fee1 	bl	800145c <HAL_GetTick>
 800169a:	1b80      	subs	r0, r0, r6
 800169c:	2802      	cmp	r0, #2
 800169e:	d9f5      	bls.n	800168c <ADC_Enable+0x34>
 80016a0:	6aa3      	ldr	r3, [r4, #40]	; 0x28
 80016a2:	2001      	movs	r0, #1
 80016a4:	f043 0310 	orr.w	r3, r3, #16
 80016a8:	62a3      	str	r3, [r4, #40]	; 0x28
 80016aa:	6ae3      	ldr	r3, [r4, #44]	; 0x2c
 80016ac:	f884 5024 	strb.w	r5, [r4, #36]	; 0x24
 80016b0:	f043 0301 	orr.w	r3, r3, #1
 80016b4:	62e3      	str	r3, [r4, #44]	; 0x2c
 80016b6:	e7d8      	b.n	800166a <ADC_Enable+0x12>
 80016b8:	9b01      	ldr	r3, [sp, #4]
 80016ba:	3b01      	subs	r3, #1
 80016bc:	e7e0      	b.n	8001680 <ADC_Enable+0x28>
 80016be:	bf00      	nop
 80016c0:	20000068 	.word	0x20000068
 80016c4:	000f4240 	.word	0x000f4240

080016c8 <HAL_ADC_Start_IT>:
 80016c8:	b510      	push	{r4, lr}
 80016ca:	f890 3024 	ldrb.w	r3, [r0, #36]	; 0x24
 80016ce:	4604      	mov	r4, r0
 80016d0:	2b01      	cmp	r3, #1
 80016d2:	d058      	beq.n	8001786 <HAL_ADC_Start_IT+0xbe>
 80016d4:	2301      	movs	r3, #1
 80016d6:	f880 3024 	strb.w	r3, [r0, #36]	; 0x24
 80016da:	f7ff ffbd 	bl	8001658 <ADC_Enable>
 80016de:	2800      	cmp	r0, #0
 80016e0:	d14d      	bne.n	800177e <HAL_ADC_Start_IT+0xb6>
 80016e2:	6aa3      	ldr	r3, [r4, #40]	; 0x28
 80016e4:	4a29      	ldr	r2, [pc, #164]	; (800178c <HAL_ADC_Start_IT+0xc4>)
 80016e6:	f423 6370 	bic.w	r3, r3, #3840	; 0xf00
 80016ea:	f023 0301 	bic.w	r3, r3, #1
 80016ee:	f443 7380 	orr.w	r3, r3, #256	; 0x100
 80016f2:	62a3      	str	r3, [r4, #40]	; 0x28
 80016f4:	6823      	ldr	r3, [r4, #0]
 80016f6:	4293      	cmp	r3, r2
 80016f8:	d104      	bne.n	8001704 <HAL_ADC_Start_IT+0x3c>
 80016fa:	4925      	ldr	r1, [pc, #148]	; (8001790 <HAL_ADC_Start_IT+0xc8>)
 80016fc:	684a      	ldr	r2, [r1, #4]
 80016fe:	f412 2f70 	tst.w	r2, #983040	; 0xf0000
 8001702:	d132      	bne.n	800176a <HAL_ADC_Start_IT+0xa2>
 8001704:	6aa2      	ldr	r2, [r4, #40]	; 0x28
 8001706:	f422 1280 	bic.w	r2, r2, #1048576	; 0x100000
 800170a:	62a2      	str	r2, [r4, #40]	; 0x28
 800170c:	685a      	ldr	r2, [r3, #4]
 800170e:	0552      	lsls	r2, r2, #21
 8001710:	bf41      	itttt	mi
 8001712:	6aa2      	ldrmi	r2, [r4, #40]	; 0x28
 8001714:	f422 5240 	bicmi.w	r2, r2, #12288	; 0x3000
 8001718:	f442 5280 	orrmi.w	r2, r2, #4096	; 0x1000
 800171c:	62a2      	strmi	r2, [r4, #40]	; 0x28
 800171e:	6aa2      	ldr	r2, [r4, #40]	; 0x28
 8001720:	f412 5280 	ands.w	r2, r2, #4096	; 0x1000
 8001724:	bf1c      	itt	ne
 8001726:	6ae2      	ldrne	r2, [r4, #44]	; 0x2c
 8001728:	f022 0206 	bicne.w	r2, r2, #6
 800172c:	62e2      	str	r2, [r4, #44]	; 0x2c
 800172e:	2200      	movs	r2, #0
 8001730:	f884 2024 	strb.w	r2, [r4, #36]	; 0x24
 8001734:	f06f 0202 	mvn.w	r2, #2
 8001738:	601a      	str	r2, [r3, #0]
 800173a:	685a      	ldr	r2, [r3, #4]
 800173c:	f042 0220 	orr.w	r2, r2, #32
 8001740:	605a      	str	r2, [r3, #4]
 8001742:	689a      	ldr	r2, [r3, #8]
 8001744:	f402 2260 	and.w	r2, r2, #917504	; 0xe0000
 8001748:	f5b2 2f60 	cmp.w	r2, #917504	; 0xe0000
 800174c:	d113      	bne.n	8001776 <HAL_ADC_Start_IT+0xae>
 800174e:	4a0f      	ldr	r2, [pc, #60]	; (800178c <HAL_ADC_Start_IT+0xc4>)
 8001750:	4293      	cmp	r3, r2
 8001752:	d105      	bne.n	8001760 <HAL_ADC_Start_IT+0x98>
 8001754:	f5a2 6280 	sub.w	r2, r2, #1024	; 0x400
 8001758:	6852      	ldr	r2, [r2, #4]
 800175a:	f412 2f70 	tst.w	r2, #983040	; 0xf0000
 800175e:	d10a      	bne.n	8001776 <HAL_ADC_Start_IT+0xae>
 8001760:	689a      	ldr	r2, [r3, #8]
 8001762:	f442 02a0 	orr.w	r2, r2, #5242880	; 0x500000
 8001766:	609a      	str	r2, [r3, #8]
 8001768:	bd10      	pop	{r4, pc}
 800176a:	6aa2      	ldr	r2, [r4, #40]	; 0x28
 800176c:	f442 1280 	orr.w	r2, r2, #1048576	; 0x100000
 8001770:	62a2      	str	r2, [r4, #40]	; 0x28
 8001772:	684a      	ldr	r2, [r1, #4]
 8001774:	e7cb      	b.n	800170e <HAL_ADC_Start_IT+0x46>
 8001776:	689a      	ldr	r2, [r3, #8]
 8001778:	f442 1280 	orr.w	r2, r2, #1048576	; 0x100000
 800177c:	e7f3      	b.n	8001766 <HAL_ADC_Start_IT+0x9e>
 800177e:	2300      	movs	r3, #0
 8001780:	f884 3024 	strb.w	r3, [r4, #36]	; 0x24
 8001784:	e7f0      	b.n	8001768 <HAL_ADC_Start_IT+0xa0>
 8001786:	2002      	movs	r0, #2
 8001788:	e7ee      	b.n	8001768 <HAL_ADC_Start_IT+0xa0>
 800178a:	bf00      	nop
 800178c:	40012800 	.word	0x40012800
 8001790:	40012400 	.word	0x40012400

08001794 <ADC_ConversionStop_Disable>:
 8001794:	b538      	push	{r3, r4, r5, lr}
 8001796:	6803      	ldr	r3, [r0, #0]
 8001798:	4604      	mov	r4, r0
 800179a:	689a      	ldr	r2, [r3, #8]
 800179c:	07d2      	lsls	r2, r2, #31
 800179e:	d401      	bmi.n	80017a4 <ADC_ConversionStop_Disable+0x10>
 80017a0:	2000      	movs	r0, #0
 80017a2:	bd38      	pop	{r3, r4, r5, pc}
 80017a4:	689a      	ldr	r2, [r3, #8]
 80017a6:	f022 0201 	bic.w	r2, r2, #1
 80017aa:	609a      	str	r2, [r3, #8]
 80017ac:	f7ff fe56 	bl	800145c <HAL_GetTick>
 80017b0:	4605      	mov	r5, r0
 80017b2:	6823      	ldr	r3, [r4, #0]
 80017b4:	689b      	ldr	r3, [r3, #8]
 80017b6:	07db      	lsls	r3, r3, #31
 80017b8:	d5f2      	bpl.n	80017a0 <ADC_ConversionStop_Disable+0xc>
 80017ba:	f7ff fe4f 	bl	800145c <HAL_GetTick>
 80017be:	1b40      	subs	r0, r0, r5
 80017c0:	2802      	cmp	r0, #2
 80017c2:	d9f6      	bls.n	80017b2 <ADC_ConversionStop_Disable+0x1e>
 80017c4:	6aa3      	ldr	r3, [r4, #40]	; 0x28
 80017c6:	2001      	movs	r0, #1
 80017c8:	f043 0310 	orr.w	r3, r3, #16
 80017cc:	62a3      	str	r3, [r4, #40]	; 0x28
 80017ce:	6ae3      	ldr	r3, [r4, #44]	; 0x2c
 80017d0:	f043 0301 	orr.w	r3, r3, #1
 80017d4:	62e3      	str	r3, [r4, #44]	; 0x2c
 80017d6:	e7e4      	b.n	80017a2 <ADC_ConversionStop_Disable+0xe>

080017d8 <HAL_ADC_Init>:
 80017d8:	b5f8      	push	{r3, r4, r5, r6, r7, lr}
 80017da:	4604      	mov	r4, r0
 80017dc:	2800      	cmp	r0, #0
 80017de:	d06e      	beq.n	80018be <HAL_ADC_Init+0xe6>
 80017e0:	6a83      	ldr	r3, [r0, #40]	; 0x28
 80017e2:	b923      	cbnz	r3, 80017ee <HAL_ADC_Init+0x16>
 80017e4:	62c3      	str	r3, [r0, #44]	; 0x2c
 80017e6:	f880 3024 	strb.w	r3, [r0, #36]	; 0x24
 80017ea:	f7ff fc8d 	bl	8001108 <HAL_ADC_MspInit>
 80017ee:	4620      	mov	r0, r4
 80017f0:	f7ff ffd0 	bl	8001794 <ADC_ConversionStop_Disable>
 80017f4:	6aa3      	ldr	r3, [r4, #40]	; 0x28
 80017f6:	f013 0310 	ands.w	r3, r3, #16
 80017fa:	d162      	bne.n	80018c2 <HAL_ADC_Init+0xea>
 80017fc:	2800      	cmp	r0, #0
 80017fe:	d160      	bne.n	80018c2 <HAL_ADC_Init+0xea>
 8001800:	6aa2      	ldr	r2, [r4, #40]	; 0x28
 8001802:	69e5      	ldr	r5, [r4, #28]
 8001804:	6861      	ldr	r1, [r4, #4]
 8001806:	f422 5288 	bic.w	r2, r2, #4352	; 0x1100
 800180a:	f022 0202 	bic.w	r2, r2, #2
 800180e:	f042 0202 	orr.w	r2, r2, #2
 8001812:	4329      	orrs	r1, r5
 8001814:	68a5      	ldr	r5, [r4, #8]
 8001816:	62a2      	str	r2, [r4, #40]	; 0x28
 8001818:	7b22      	ldrb	r2, [r4, #12]
 800181a:	f5b5 7f80 	cmp.w	r5, #256	; 0x100
 800181e:	ea41 0142 	orr.w	r1, r1, r2, lsl #1
 8001822:	d037      	beq.n	8001894 <HAL_ADC_Init+0xbc>
 8001824:	2d01      	cmp	r5, #1
 8001826:	bf14      	ite	ne
 8001828:	2700      	movne	r7, #0
 800182a:	f44f 7780 	moveq.w	r7, #256	; 0x100
 800182e:	7d26      	ldrb	r6, [r4, #20]
 8001830:	2e01      	cmp	r6, #1
 8001832:	d106      	bne.n	8001842 <HAL_ADC_Init+0x6a>
 8001834:	bb82      	cbnz	r2, 8001898 <HAL_ADC_Init+0xc0>
 8001836:	69a2      	ldr	r2, [r4, #24]
 8001838:	3a01      	subs	r2, #1
 800183a:	ea47 3642 	orr.w	r6, r7, r2, lsl #13
 800183e:	f446 6700 	orr.w	r7, r6, #2048	; 0x800
 8001842:	6822      	ldr	r2, [r4, #0]
 8001844:	f5b5 7f80 	cmp.w	r5, #256	; 0x100
 8001848:	6856      	ldr	r6, [r2, #4]
 800184a:	f426 4669 	bic.w	r6, r6, #59648	; 0xe900
 800184e:	ea46 0607 	orr.w	r6, r6, r7
 8001852:	6056      	str	r6, [r2, #4]
 8001854:	6897      	ldr	r7, [r2, #8]
 8001856:	4e1d      	ldr	r6, [pc, #116]	; (80018cc <HAL_ADC_Init+0xf4>)
 8001858:	ea06 0607 	and.w	r6, r6, r7
 800185c:	ea46 0601 	orr.w	r6, r6, r1
 8001860:	6096      	str	r6, [r2, #8]
 8001862:	d001      	beq.n	8001868 <HAL_ADC_Init+0x90>
 8001864:	2d01      	cmp	r5, #1
 8001866:	d102      	bne.n	800186e <HAL_ADC_Init+0x96>
 8001868:	6923      	ldr	r3, [r4, #16]
 800186a:	3b01      	subs	r3, #1
 800186c:	051b      	lsls	r3, r3, #20
 800186e:	6ad5      	ldr	r5, [r2, #44]	; 0x2c
 8001870:	f425 0570 	bic.w	r5, r5, #15728640	; 0xf00000
 8001874:	432b      	orrs	r3, r5
 8001876:	62d3      	str	r3, [r2, #44]	; 0x2c
 8001878:	6892      	ldr	r2, [r2, #8]
 800187a:	4b15      	ldr	r3, [pc, #84]	; (80018d0 <HAL_ADC_Init+0xf8>)
 800187c:	4013      	ands	r3, r2
 800187e:	4299      	cmp	r1, r3
 8001880:	d113      	bne.n	80018aa <HAL_ADC_Init+0xd2>
 8001882:	2300      	movs	r3, #0
 8001884:	62e3      	str	r3, [r4, #44]	; 0x2c
 8001886:	6aa3      	ldr	r3, [r4, #40]	; 0x28
 8001888:	f023 0303 	bic.w	r3, r3, #3
 800188c:	f043 0301 	orr.w	r3, r3, #1
 8001890:	62a3      	str	r3, [r4, #40]	; 0x28
 8001892:	bdf8      	pop	{r3, r4, r5, r6, r7, pc}
 8001894:	462f      	mov	r7, r5
 8001896:	e7ca      	b.n	800182e <HAL_ADC_Init+0x56>
 8001898:	6aa2      	ldr	r2, [r4, #40]	; 0x28
 800189a:	f042 0220 	orr.w	r2, r2, #32
 800189e:	62a2      	str	r2, [r4, #40]	; 0x28
 80018a0:	6ae2      	ldr	r2, [r4, #44]	; 0x2c
 80018a2:	f042 0201 	orr.w	r2, r2, #1
 80018a6:	62e2      	str	r2, [r4, #44]	; 0x2c
 80018a8:	e7cb      	b.n	8001842 <HAL_ADC_Init+0x6a>
 80018aa:	6aa3      	ldr	r3, [r4, #40]	; 0x28
 80018ac:	f023 0312 	bic.w	r3, r3, #18
 80018b0:	f043 0310 	orr.w	r3, r3, #16
 80018b4:	62a3      	str	r3, [r4, #40]	; 0x28
 80018b6:	6ae3      	ldr	r3, [r4, #44]	; 0x2c
 80018b8:	f043 0301 	orr.w	r3, r3, #1
 80018bc:	62e3      	str	r3, [r4, #44]	; 0x2c
 80018be:	2001      	movs	r0, #1
 80018c0:	e7e7      	b.n	8001892 <HAL_ADC_Init+0xba>
 80018c2:	6aa3      	ldr	r3, [r4, #40]	; 0x28
 80018c4:	f043 0310 	orr.w	r3, r3, #16
 80018c8:	62a3      	str	r3, [r4, #40]	; 0x28
 80018ca:	e7f8      	b.n	80018be <HAL_ADC_Init+0xe6>
 80018cc:	ffe1f7fd 	.word	0xffe1f7fd
 80018d0:	ff1f0efe 	.word	0xff1f0efe

080018d4 <HAL_ADC_DeInit>:
 80018d4:	b538      	push	{r3, r4, r5, lr}
 80018d6:	4604      	mov	r4, r0
 80018d8:	2800      	cmp	r0, #0
 80018da:	d050      	beq.n	800197e <HAL_ADC_DeInit+0xaa>
 80018dc:	6a83      	ldr	r3, [r0, #40]	; 0x28
 80018de:	f043 0302 	orr.w	r3, r3, #2
 80018e2:	6283      	str	r3, [r0, #40]	; 0x28
 80018e4:	f7ff ff56 	bl	8001794 <ADC_ConversionStop_Disable>
 80018e8:	4605      	mov	r5, r0
 80018ea:	2800      	cmp	r0, #0
 80018ec:	d142      	bne.n	8001974 <HAL_ADC_DeInit+0xa0>
 80018ee:	f06f 021f 	mvn.w	r2, #31
 80018f2:	6823      	ldr	r3, [r4, #0]
 80018f4:	4823      	ldr	r0, [pc, #140]	; (8001984 <HAL_ADC_DeInit+0xb0>)
 80018f6:	601a      	str	r2, [r3, #0]
 80018f8:	6859      	ldr	r1, [r3, #4]
 80018fa:	4a23      	ldr	r2, [pc, #140]	; (8001988 <HAL_ADC_DeInit+0xb4>)
 80018fc:	400a      	ands	r2, r1
 80018fe:	605a      	str	r2, [r3, #4]
 8001900:	6899      	ldr	r1, [r3, #8]
 8001902:	4a22      	ldr	r2, [pc, #136]	; (800198c <HAL_ADC_DeInit+0xb8>)
 8001904:	400a      	ands	r2, r1
 8001906:	609a      	str	r2, [r3, #8]
 8001908:	68da      	ldr	r2, [r3, #12]
 800190a:	f002 427f 	and.w	r2, r2, #4278190080	; 0xff000000
 800190e:	60da      	str	r2, [r3, #12]
 8001910:	691a      	ldr	r2, [r3, #16]
 8001912:	f002 4240 	and.w	r2, r2, #3221225472	; 0xc0000000
 8001916:	611a      	str	r2, [r3, #16]
 8001918:	6959      	ldr	r1, [r3, #20]
 800191a:	4a1d      	ldr	r2, [pc, #116]	; (8001990 <HAL_ADC_DeInit+0xbc>)
 800191c:	4011      	ands	r1, r2
 800191e:	6159      	str	r1, [r3, #20]
 8001920:	6999      	ldr	r1, [r3, #24]
 8001922:	4011      	ands	r1, r2
 8001924:	6199      	str	r1, [r3, #24]
 8001926:	69d9      	ldr	r1, [r3, #28]
 8001928:	4011      	ands	r1, r2
 800192a:	61d9      	str	r1, [r3, #28]
 800192c:	6a19      	ldr	r1, [r3, #32]
 800192e:	4011      	ands	r1, r2
 8001930:	6219      	str	r1, [r3, #32]
 8001932:	6a59      	ldr	r1, [r3, #36]	; 0x24
 8001934:	4011      	ands	r1, r2
 8001936:	6259      	str	r1, [r3, #36]	; 0x24
 8001938:	6a99      	ldr	r1, [r3, #40]	; 0x28
 800193a:	400a      	ands	r2, r1
 800193c:	629a      	str	r2, [r3, #40]	; 0x28
 800193e:	6ada      	ldr	r2, [r3, #44]	; 0x2c
 8001940:	f002 427f 	and.w	r2, r2, #4278190080	; 0xff000000
 8001944:	62da      	str	r2, [r3, #44]	; 0x2c
 8001946:	6ada      	ldr	r2, [r3, #44]	; 0x2c
 8001948:	f002 427f 	and.w	r2, r2, #4278190080	; 0xff000000
 800194c:	62da      	str	r2, [r3, #44]	; 0x2c
 800194e:	6b1a      	ldr	r2, [r3, #48]	; 0x30
 8001950:	f002 4240 	and.w	r2, r2, #3221225472	; 0xc0000000
 8001954:	631a      	str	r2, [r3, #48]	; 0x30
 8001956:	6b5a      	ldr	r2, [r3, #52]	; 0x34
 8001958:	f002 4240 	and.w	r2, r2, #3221225472	; 0xc0000000
 800195c:	635a      	str	r2, [r3, #52]	; 0x34
 800195e:	6b99      	ldr	r1, [r3, #56]	; 0x38
 8001960:	4001      	ands	r1, r0
 8001962:	6399      	str	r1, [r3, #56]	; 0x38
 8001964:	6b9a      	ldr	r2, [r3, #56]	; 0x38
 8001966:	4002      	ands	r2, r0
 8001968:	639a      	str	r2, [r3, #56]	; 0x38
 800196a:	4620      	mov	r0, r4
 800196c:	f7ff fc14 	bl	8001198 <HAL_ADC_MspDeInit>
 8001970:	62e5      	str	r5, [r4, #44]	; 0x2c
 8001972:	62a5      	str	r5, [r4, #40]	; 0x28
 8001974:	2300      	movs	r3, #0
 8001976:	f884 3024 	strb.w	r3, [r4, #36]	; 0x24
 800197a:	4628      	mov	r0, r5
 800197c:	bd38      	pop	{r3, r4, r5, pc}
 800197e:	2501      	movs	r5, #1
 8001980:	e7fb      	b.n	800197a <HAL_ADC_DeInit+0xa6>
 8001982:	bf00      	nop
 8001984:	ffc00000 	.word	0xffc00000
 8001988:	ff3f0000 	.word	0xff3f0000
 800198c:	ff0106f0 	.word	0xff0106f0
 8001990:	fffff000 	.word	0xfffff000

08001994 <HAL_ADCEx_Calibration_Start>:
 8001994:	2300      	movs	r3, #0
 8001996:	b573      	push	{r0, r1, r4, r5, r6, lr}
 8001998:	9301      	str	r3, [sp, #4]
 800199a:	f890 3024 	ldrb.w	r3, [r0, #36]	; 0x24
 800199e:	4604      	mov	r4, r0
 80019a0:	2b01      	cmp	r3, #1
 80019a2:	d05a      	beq.n	8001a5a <HAL_ADCEx_Calibration_Start+0xc6>
 80019a4:	2301      	movs	r3, #1
 80019a6:	f880 3024 	strb.w	r3, [r0, #36]	; 0x24
 80019aa:	f7ff fef3 	bl	8001794 <ADC_ConversionStop_Disable>
 80019ae:	4605      	mov	r5, r0
 80019b0:	2800      	cmp	r0, #0
 80019b2:	d132      	bne.n	8001a1a <HAL_ADCEx_Calibration_Start+0x86>
 80019b4:	6aa3      	ldr	r3, [r4, #40]	; 0x28
 80019b6:	2002      	movs	r0, #2
 80019b8:	f423 5388 	bic.w	r3, r3, #4352	; 0x1100
 80019bc:	f023 0302 	bic.w	r3, r3, #2
 80019c0:	f043 0302 	orr.w	r3, r3, #2
 80019c4:	62a3      	str	r3, [r4, #40]	; 0x28
 80019c6:	4b26      	ldr	r3, [pc, #152]	; (8001a60 <HAL_ADCEx_Calibration_Start+0xcc>)
 80019c8:	681e      	ldr	r6, [r3, #0]
 80019ca:	f000 fd55 	bl	8002478 <HAL_RCCEx_GetPeriphCLKFreq>
 80019ce:	fbb6 f6f0 	udiv	r6, r6, r0
 80019d2:	0076      	lsls	r6, r6, #1
 80019d4:	9601      	str	r6, [sp, #4]
 80019d6:	9b01      	ldr	r3, [sp, #4]
 80019d8:	bb1b      	cbnz	r3, 8001a22 <HAL_ADCEx_Calibration_Start+0x8e>
 80019da:	4620      	mov	r0, r4
 80019dc:	f7ff fe3c 	bl	8001658 <ADC_Enable>
 80019e0:	6822      	ldr	r2, [r4, #0]
 80019e2:	6893      	ldr	r3, [r2, #8]
 80019e4:	f043 0308 	orr.w	r3, r3, #8
 80019e8:	6093      	str	r3, [r2, #8]
 80019ea:	f7ff fd37 	bl	800145c <HAL_GetTick>
 80019ee:	4606      	mov	r6, r0
 80019f0:	6823      	ldr	r3, [r4, #0]
 80019f2:	689a      	ldr	r2, [r3, #8]
 80019f4:	0712      	lsls	r2, r2, #28
 80019f6:	d418      	bmi.n	8001a2a <HAL_ADCEx_Calibration_Start+0x96>
 80019f8:	689a      	ldr	r2, [r3, #8]
 80019fa:	f042 0204 	orr.w	r2, r2, #4
 80019fe:	609a      	str	r2, [r3, #8]
 8001a00:	f7ff fd2c 	bl	800145c <HAL_GetTick>
 8001a04:	4606      	mov	r6, r0
 8001a06:	6823      	ldr	r3, [r4, #0]
 8001a08:	689b      	ldr	r3, [r3, #8]
 8001a0a:	075b      	lsls	r3, r3, #29
 8001a0c:	d41f      	bmi.n	8001a4e <HAL_ADCEx_Calibration_Start+0xba>
 8001a0e:	6aa3      	ldr	r3, [r4, #40]	; 0x28
 8001a10:	f023 0303 	bic.w	r3, r3, #3
 8001a14:	f043 0301 	orr.w	r3, r3, #1
 8001a18:	62a3      	str	r3, [r4, #40]	; 0x28
 8001a1a:	2300      	movs	r3, #0
 8001a1c:	f884 3024 	strb.w	r3, [r4, #36]	; 0x24
 8001a20:	e012      	b.n	8001a48 <HAL_ADCEx_Calibration_Start+0xb4>
 8001a22:	9b01      	ldr	r3, [sp, #4]
 8001a24:	3b01      	subs	r3, #1
 8001a26:	9301      	str	r3, [sp, #4]
 8001a28:	e7d5      	b.n	80019d6 <HAL_ADCEx_Calibration_Start+0x42>
 8001a2a:	f7ff fd17 	bl	800145c <HAL_GetTick>
 8001a2e:	1b80      	subs	r0, r0, r6
 8001a30:	280a      	cmp	r0, #10
 8001a32:	d9dd      	bls.n	80019f0 <HAL_ADCEx_Calibration_Start+0x5c>
 8001a34:	6aa3      	ldr	r3, [r4, #40]	; 0x28
 8001a36:	2501      	movs	r5, #1
 8001a38:	f023 0312 	bic.w	r3, r3, #18
 8001a3c:	f043 0310 	orr.w	r3, r3, #16
 8001a40:	62a3      	str	r3, [r4, #40]	; 0x28
 8001a42:	2300      	movs	r3, #0
 8001a44:	f884 3024 	strb.w	r3, [r4, #36]	; 0x24
 8001a48:	4628      	mov	r0, r5
 8001a4a:	b002      	add	sp, #8
 8001a4c:	bd70      	pop	{r4, r5, r6, pc}
 8001a4e:	f7ff fd05 	bl	800145c <HAL_GetTick>
 8001a52:	1b80      	subs	r0, r0, r6
 8001a54:	280a      	cmp	r0, #10
 8001a56:	d9d6      	bls.n	8001a06 <HAL_ADCEx_Calibration_Start+0x72>
 8001a58:	e7ec      	b.n	8001a34 <HAL_ADCEx_Calibration_Start+0xa0>
 8001a5a:	2502      	movs	r5, #2
 8001a5c:	e7f4      	b.n	8001a48 <HAL_ADCEx_Calibration_Start+0xb4>
 8001a5e:	bf00      	nop
 8001a60:	20000068 	.word	0x20000068

08001a64 <HAL_ADCEx_InjectedConvCpltCallback>:
 8001a64:	4770      	bx	lr
	...

08001a68 <HAL_NVIC_SetPriorityGrouping>:
 8001a68:	4907      	ldr	r1, [pc, #28]	; (8001a88 <HAL_NVIC_SetPriorityGrouping+0x20>)
 8001a6a:	0203      	lsls	r3, r0, #8
 8001a6c:	68ca      	ldr	r2, [r1, #12]
 8001a6e:	f403 63e0 	and.w	r3, r3, #1792	; 0x700
 8001a72:	f422 62e0 	bic.w	r2, r2, #1792	; 0x700
 8001a76:	0412      	lsls	r2, r2, #16
 8001a78:	0c12      	lsrs	r2, r2, #16
 8001a7a:	4313      	orrs	r3, r2
 8001a7c:	f043 63bf 	orr.w	r3, r3, #100139008	; 0x5f80000
 8001a80:	f443 3300 	orr.w	r3, r3, #131072	; 0x20000
 8001a84:	60cb      	str	r3, [r1, #12]
 8001a86:	4770      	bx	lr
 8001a88:	e000ed00 	.word	0xe000ed00

08001a8c <HAL_NVIC_SetPriority>:
 8001a8c:	4b16      	ldr	r3, [pc, #88]	; (8001ae8 <HAL_NVIC_SetPriority+0x5c>)
 8001a8e:	b530      	push	{r4, r5, lr}
 8001a90:	68dc      	ldr	r4, [r3, #12]
 8001a92:	f3c4 2402 	ubfx	r4, r4, #8, #3
 8001a96:	f1c4 0307 	rsb	r3, r4, #7
 8001a9a:	1d25      	adds	r5, r4, #4
 8001a9c:	2b04      	cmp	r3, #4
 8001a9e:	bf28      	it	cs
 8001aa0:	2304      	movcs	r3, #4
 8001aa2:	2d06      	cmp	r5, #6
 8001aa4:	f04f 35ff 	mov.w	r5, #4294967295
 8001aa8:	bf98      	it	ls
 8001aaa:	2400      	movls	r4, #0
 8001aac:	fa05 f303 	lsl.w	r3, r5, r3
 8001ab0:	bf88      	it	hi
 8001ab2:	3c03      	subhi	r4, #3
 8001ab4:	ea21 0303 	bic.w	r3, r1, r3
 8001ab8:	40a3      	lsls	r3, r4
 8001aba:	fa05 f404 	lsl.w	r4, r5, r4
 8001abe:	ea22 0204 	bic.w	r2, r2, r4
 8001ac2:	2800      	cmp	r0, #0
 8001ac4:	ea43 0302 	orr.w	r3, r3, r2
 8001ac8:	bfac      	ite	ge
 8001aca:	f100 4060 	addge.w	r0, r0, #3758096384	; 0xe0000000
 8001ace:	4a07      	ldrlt	r2, [pc, #28]	; (8001aec <HAL_NVIC_SetPriority+0x60>)
 8001ad0:	ea4f 1303 	mov.w	r3, r3, lsl #4
 8001ad4:	b2db      	uxtb	r3, r3
 8001ad6:	bfab      	itete	ge
 8001ad8:	f500 4061 	addge.w	r0, r0, #57600	; 0xe100
 8001adc:	f000 000f 	andlt.w	r0, r0, #15
 8001ae0:	f880 3300 	strbge.w	r3, [r0, #768]	; 0x300
 8001ae4:	5413      	strblt	r3, [r2, r0]
 8001ae6:	bd30      	pop	{r4, r5, pc}
 8001ae8:	e000ed00 	.word	0xe000ed00
 8001aec:	e000ed14 	.word	0xe000ed14

08001af0 <HAL_NVIC_EnableIRQ>:
 8001af0:	2800      	cmp	r0, #0
 8001af2:	db08      	blt.n	8001b06 <HAL_NVIC_EnableIRQ+0x16>
 8001af4:	2301      	movs	r3, #1
 8001af6:	0942      	lsrs	r2, r0, #5
 8001af8:	f000 001f 	and.w	r0, r0, #31
 8001afc:	fa03 f000 	lsl.w	r0, r3, r0
 8001b00:	4b01      	ldr	r3, [pc, #4]	; (8001b08 <HAL_NVIC_EnableIRQ+0x18>)
 8001b02:	f843 0022 	str.w	r0, [r3, r2, lsl #2]
 8001b06:	4770      	bx	lr
 8001b08:	e000e100 	.word	0xe000e100

08001b0c <HAL_SYSTICK_Config>:
 8001b0c:	3801      	subs	r0, #1
 8001b0e:	f1b0 7f80 	cmp.w	r0, #16777216	; 0x1000000
 8001b12:	d20a      	bcs.n	8001b2a <HAL_SYSTICK_Config+0x1e>
 8001b14:	21f0      	movs	r1, #240	; 0xf0
 8001b16:	4b06      	ldr	r3, [pc, #24]	; (8001b30 <HAL_SYSTICK_Config+0x24>)
 8001b18:	4a06      	ldr	r2, [pc, #24]	; (8001b34 <HAL_SYSTICK_Config+0x28>)
 8001b1a:	6058      	str	r0, [r3, #4]
 8001b1c:	f882 1023 	strb.w	r1, [r2, #35]	; 0x23
 8001b20:	2000      	movs	r0, #0
 8001b22:	2207      	movs	r2, #7
 8001b24:	6098      	str	r0, [r3, #8]
 8001b26:	601a      	str	r2, [r3, #0]
 8001b28:	4770      	bx	lr
 8001b2a:	2001      	movs	r0, #1
 8001b2c:	4770      	bx	lr
 8001b2e:	bf00      	nop
 8001b30:	e000e010 	.word	0xe000e010
 8001b34:	e000ed00 	.word	0xe000ed00

08001b38 <HAL_DMA_Abort_IT>:
 8001b38:	b508      	push	{r3, lr}
 8001b3a:	f890 3021 	ldrb.w	r3, [r0, #33]	; 0x21
 8001b3e:	2b02      	cmp	r3, #2
 8001b40:	d003      	beq.n	8001b4a <HAL_DMA_Abort_IT+0x12>
 8001b42:	2304      	movs	r3, #4
 8001b44:	6383      	str	r3, [r0, #56]	; 0x38
 8001b46:	2001      	movs	r0, #1
 8001b48:	bd08      	pop	{r3, pc}
 8001b4a:	6803      	ldr	r3, [r0, #0]
 8001b4c:	681a      	ldr	r2, [r3, #0]
 8001b4e:	f022 020e 	bic.w	r2, r2, #14
 8001b52:	601a      	str	r2, [r3, #0]
 8001b54:	681a      	ldr	r2, [r3, #0]
 8001b56:	f022 0201 	bic.w	r2, r2, #1
 8001b5a:	601a      	str	r2, [r3, #0]
 8001b5c:	4a17      	ldr	r2, [pc, #92]	; (8001bbc <HAL_DMA_Abort_IT+0x84>)
 8001b5e:	4293      	cmp	r3, r2
 8001b60:	d01c      	beq.n	8001b9c <HAL_DMA_Abort_IT+0x64>
 8001b62:	3214      	adds	r2, #20
 8001b64:	4293      	cmp	r3, r2
 8001b66:	d01b      	beq.n	8001ba0 <HAL_DMA_Abort_IT+0x68>
 8001b68:	3214      	adds	r2, #20
 8001b6a:	4293      	cmp	r3, r2
 8001b6c:	d01a      	beq.n	8001ba4 <HAL_DMA_Abort_IT+0x6c>
 8001b6e:	3214      	adds	r2, #20
 8001b70:	4293      	cmp	r3, r2
 8001b72:	d01a      	beq.n	8001baa <HAL_DMA_Abort_IT+0x72>
 8001b74:	3214      	adds	r2, #20
 8001b76:	4293      	cmp	r3, r2
 8001b78:	d01a      	beq.n	8001bb0 <HAL_DMA_Abort_IT+0x78>
 8001b7a:	3214      	adds	r2, #20
 8001b7c:	4293      	cmp	r3, r2
 8001b7e:	bf0c      	ite	eq
 8001b80:	f44f 1380 	moveq.w	r3, #1048576	; 0x100000
 8001b84:	f04f 7380 	movne.w	r3, #16777216	; 0x1000000
 8001b88:	4a0d      	ldr	r2, [pc, #52]	; (8001bc0 <HAL_DMA_Abort_IT+0x88>)
 8001b8a:	6053      	str	r3, [r2, #4]
 8001b8c:	f44f 7380 	mov.w	r3, #256	; 0x100
 8001b90:	8403      	strh	r3, [r0, #32]
 8001b92:	6b43      	ldr	r3, [r0, #52]	; 0x34
 8001b94:	b17b      	cbz	r3, 8001bb6 <HAL_DMA_Abort_IT+0x7e>
 8001b96:	4798      	blx	r3
 8001b98:	2000      	movs	r0, #0
 8001b9a:	e7d5      	b.n	8001b48 <HAL_DMA_Abort_IT+0x10>
 8001b9c:	2301      	movs	r3, #1
 8001b9e:	e7f3      	b.n	8001b88 <HAL_DMA_Abort_IT+0x50>
 8001ba0:	2310      	movs	r3, #16
 8001ba2:	e7f1      	b.n	8001b88 <HAL_DMA_Abort_IT+0x50>
 8001ba4:	f44f 7380 	mov.w	r3, #256	; 0x100
 8001ba8:	e7ee      	b.n	8001b88 <HAL_DMA_Abort_IT+0x50>
 8001baa:	f44f 5380 	mov.w	r3, #4096	; 0x1000
 8001bae:	e7eb      	b.n	8001b88 <HAL_DMA_Abort_IT+0x50>
 8001bb0:	f44f 3380 	mov.w	r3, #65536	; 0x10000
 8001bb4:	e7e8      	b.n	8001b88 <HAL_DMA_Abort_IT+0x50>
 8001bb6:	4618      	mov	r0, r3
 8001bb8:	e7c6      	b.n	8001b48 <HAL_DMA_Abort_IT+0x10>
 8001bba:	bf00      	nop
 8001bbc:	40020008 	.word	0x40020008
 8001bc0:	40020000 	.word	0x40020000

08001bc4 <HAL_GPIO_Init>:
 8001bc4:	e92d 4ff7 	stmdb	sp!, {r0, r1, r2, r4, r5, r6, r7, r8, r9, sl, fp, lr}
 8001bc8:	2200      	movs	r2, #0
 8001bca:	4616      	mov	r6, r2
 8001bcc:	4b64      	ldr	r3, [pc, #400]	; (8001d60 <HAL_GPIO_Init+0x19c>)
 8001bce:	f8df c1a0 	ldr.w	ip, [pc, #416]	; 8001d70 <HAL_GPIO_Init+0x1ac>
 8001bd2:	f8df e1a0 	ldr.w	lr, [pc, #416]	; 8001d74 <HAL_GPIO_Init+0x1b0>
 8001bd6:	680d      	ldr	r5, [r1, #0]
 8001bd8:	fa35 f406 	lsrs.w	r4, r5, r6
 8001bdc:	d102      	bne.n	8001be4 <HAL_GPIO_Init+0x20>
 8001bde:	b003      	add	sp, #12
 8001be0:	e8bd 8ff0 	ldmia.w	sp!, {r4, r5, r6, r7, r8, r9, sl, fp, pc}
 8001be4:	f04f 0801 	mov.w	r8, #1
 8001be8:	fa08 f806 	lsl.w	r8, r8, r6
 8001bec:	ea05 0408 	and.w	r4, r5, r8
 8001bf0:	ea38 0505 	bics.w	r5, r8, r5
 8001bf4:	d17c      	bne.n	8001cf0 <HAL_GPIO_Init+0x12c>
 8001bf6:	684d      	ldr	r5, [r1, #4]
 8001bf8:	2d03      	cmp	r5, #3
 8001bfa:	d807      	bhi.n	8001c0c <HAL_GPIO_Init+0x48>
 8001bfc:	3d01      	subs	r5, #1
 8001bfe:	2d02      	cmp	r5, #2
 8001c00:	f200 8088 	bhi.w	8001d14 <HAL_GPIO_Init+0x150>
 8001c04:	e8df f005 	tbb	[pc, r5]
 8001c08:	9b96      	.short	0x9b96
 8001c0a:	a1          	.byte	0xa1
 8001c0b:	00          	.byte	0x00
 8001c0c:	2d12      	cmp	r5, #18
 8001c0e:	f000 8099 	beq.w	8001d44 <HAL_GPIO_Init+0x180>
 8001c12:	d86f      	bhi.n	8001cf4 <HAL_GPIO_Init+0x130>
 8001c14:	2d11      	cmp	r5, #17
 8001c16:	f000 808f 	beq.w	8001d38 <HAL_GPIO_Init+0x174>
 8001c1a:	2cff      	cmp	r4, #255	; 0xff
 8001c1c:	bf98      	it	ls
 8001c1e:	4682      	movls	sl, r0
 8001c20:	f04f 090f 	mov.w	r9, #15
 8001c24:	bf88      	it	hi
 8001c26:	f100 0a04 	addhi.w	sl, r0, #4
 8001c2a:	ea4f 0586 	mov.w	r5, r6, lsl #2
 8001c2e:	f8da 8000 	ldr.w	r8, [sl]
 8001c32:	bf88      	it	hi
 8001c34:	3d20      	subhi	r5, #32
 8001c36:	fa09 fb05 	lsl.w	fp, r9, r5
 8001c3a:	ea28 080b 	bic.w	r8, r8, fp
 8001c3e:	fa02 f505 	lsl.w	r5, r2, r5
 8001c42:	ea48 0505 	orr.w	r5, r8, r5
 8001c46:	f8ca 5000 	str.w	r5, [sl]
 8001c4a:	f8d1 a004 	ldr.w	sl, [r1, #4]
 8001c4e:	f01a 5f80 	tst.w	sl, #268435456	; 0x10000000
 8001c52:	d04d      	beq.n	8001cf0 <HAL_GPIO_Init+0x12c>
 8001c54:	4f43      	ldr	r7, [pc, #268]	; (8001d64 <HAL_GPIO_Init+0x1a0>)
 8001c56:	f026 0803 	bic.w	r8, r6, #3
 8001c5a:	69bd      	ldr	r5, [r7, #24]
 8001c5c:	f108 4880 	add.w	r8, r8, #1073741824	; 0x40000000
 8001c60:	f045 0501 	orr.w	r5, r5, #1
 8001c64:	61bd      	str	r5, [r7, #24]
 8001c66:	69bd      	ldr	r5, [r7, #24]
 8001c68:	f508 3880 	add.w	r8, r8, #65536	; 0x10000
 8001c6c:	f005 0501 	and.w	r5, r5, #1
 8001c70:	9501      	str	r5, [sp, #4]
 8001c72:	f006 0b03 	and.w	fp, r6, #3
 8001c76:	9d01      	ldr	r5, [sp, #4]
 8001c78:	ea4f 0b8b 	mov.w	fp, fp, lsl #2
 8001c7c:	f8d8 5008 	ldr.w	r5, [r8, #8]
 8001c80:	fa09 f90b 	lsl.w	r9, r9, fp
 8001c84:	ea25 0909 	bic.w	r9, r5, r9
 8001c88:	4d37      	ldr	r5, [pc, #220]	; (8001d68 <HAL_GPIO_Init+0x1a4>)
 8001c8a:	42a8      	cmp	r0, r5
 8001c8c:	d061      	beq.n	8001d52 <HAL_GPIO_Init+0x18e>
 8001c8e:	f505 6580 	add.w	r5, r5, #1024	; 0x400
 8001c92:	42a8      	cmp	r0, r5
 8001c94:	d05f      	beq.n	8001d56 <HAL_GPIO_Init+0x192>
 8001c96:	f505 6580 	add.w	r5, r5, #1024	; 0x400
 8001c9a:	42a8      	cmp	r0, r5
 8001c9c:	d05d      	beq.n	8001d5a <HAL_GPIO_Init+0x196>
 8001c9e:	f505 6580 	add.w	r5, r5, #1024	; 0x400
 8001ca2:	42a8      	cmp	r0, r5
 8001ca4:	bf0c      	ite	eq
 8001ca6:	2503      	moveq	r5, #3
 8001ca8:	2504      	movne	r5, #4
 8001caa:	fa05 f50b 	lsl.w	r5, r5, fp
 8001cae:	ea45 0509 	orr.w	r5, r5, r9
 8001cb2:	f8c8 5008 	str.w	r5, [r8, #8]
 8001cb6:	681d      	ldr	r5, [r3, #0]
 8001cb8:	f41a 3f80 	tst.w	sl, #65536	; 0x10000
 8001cbc:	bf14      	ite	ne
 8001cbe:	4325      	orrne	r5, r4
 8001cc0:	43a5      	biceq	r5, r4
 8001cc2:	601d      	str	r5, [r3, #0]
 8001cc4:	685d      	ldr	r5, [r3, #4]
 8001cc6:	f41a 3f00 	tst.w	sl, #131072	; 0x20000
 8001cca:	bf14      	ite	ne
 8001ccc:	4325      	orrne	r5, r4
 8001cce:	43a5      	biceq	r5, r4
 8001cd0:	605d      	str	r5, [r3, #4]
 8001cd2:	689d      	ldr	r5, [r3, #8]
 8001cd4:	f41a 1f80 	tst.w	sl, #1048576	; 0x100000
 8001cd8:	bf14      	ite	ne
 8001cda:	4325      	orrne	r5, r4
 8001cdc:	43a5      	biceq	r5, r4
 8001cde:	609d      	str	r5, [r3, #8]
 8001ce0:	68dd      	ldr	r5, [r3, #12]
 8001ce2:	f41a 1f00 	tst.w	sl, #2097152	; 0x200000
 8001ce6:	bf14      	ite	ne
 8001ce8:	432c      	orrne	r4, r5
 8001cea:	ea25 0404 	biceq.w	r4, r5, r4
 8001cee:	60dc      	str	r4, [r3, #12]
 8001cf0:	3601      	adds	r6, #1
 8001cf2:	e770      	b.n	8001bd6 <HAL_GPIO_Init+0x12>
 8001cf4:	4f1d      	ldr	r7, [pc, #116]	; (8001d6c <HAL_GPIO_Init+0x1a8>)
 8001cf6:	42bd      	cmp	r5, r7
 8001cf8:	d00c      	beq.n	8001d14 <HAL_GPIO_Init+0x150>
 8001cfa:	d817      	bhi.n	8001d2c <HAL_GPIO_Init+0x168>
 8001cfc:	f8df 9078 	ldr.w	r9, [pc, #120]	; 8001d78 <HAL_GPIO_Init+0x1b4>
 8001d00:	454d      	cmp	r5, r9
 8001d02:	d007      	beq.n	8001d14 <HAL_GPIO_Init+0x150>
 8001d04:	f509 2970 	add.w	r9, r9, #983040	; 0xf0000
 8001d08:	454d      	cmp	r5, r9
 8001d0a:	d003      	beq.n	8001d14 <HAL_GPIO_Init+0x150>
 8001d0c:	f5a9 1980 	sub.w	r9, r9, #1048576	; 0x100000
 8001d10:	454d      	cmp	r5, r9
 8001d12:	d182      	bne.n	8001c1a <HAL_GPIO_Init+0x56>
 8001d14:	688a      	ldr	r2, [r1, #8]
 8001d16:	b1d2      	cbz	r2, 8001d4e <HAL_GPIO_Init+0x18a>
 8001d18:	2a01      	cmp	r2, #1
 8001d1a:	bf08      	it	eq
 8001d1c:	f8c0 8010 	streq.w	r8, [r0, #16]
 8001d20:	f04f 0208 	mov.w	r2, #8
 8001d24:	bf18      	it	ne
 8001d26:	f8c0 8014 	strne.w	r8, [r0, #20]
 8001d2a:	e776      	b.n	8001c1a <HAL_GPIO_Init+0x56>
 8001d2c:	4565      	cmp	r5, ip
 8001d2e:	d0f1      	beq.n	8001d14 <HAL_GPIO_Init+0x150>
 8001d30:	4575      	cmp	r5, lr
 8001d32:	e7ee      	b.n	8001d12 <HAL_GPIO_Init+0x14e>
 8001d34:	68ca      	ldr	r2, [r1, #12]
 8001d36:	e770      	b.n	8001c1a <HAL_GPIO_Init+0x56>
 8001d38:	68ca      	ldr	r2, [r1, #12]
 8001d3a:	3204      	adds	r2, #4
 8001d3c:	e76d      	b.n	8001c1a <HAL_GPIO_Init+0x56>
 8001d3e:	68ca      	ldr	r2, [r1, #12]
 8001d40:	3208      	adds	r2, #8
 8001d42:	e76a      	b.n	8001c1a <HAL_GPIO_Init+0x56>
 8001d44:	68ca      	ldr	r2, [r1, #12]
 8001d46:	320c      	adds	r2, #12
 8001d48:	e767      	b.n	8001c1a <HAL_GPIO_Init+0x56>
 8001d4a:	2200      	movs	r2, #0
 8001d4c:	e765      	b.n	8001c1a <HAL_GPIO_Init+0x56>
 8001d4e:	2204      	movs	r2, #4
 8001d50:	e763      	b.n	8001c1a <HAL_GPIO_Init+0x56>
 8001d52:	2500      	movs	r5, #0
 8001d54:	e7a9      	b.n	8001caa <HAL_GPIO_Init+0xe6>
 8001d56:	2501      	movs	r5, #1
 8001d58:	e7a7      	b.n	8001caa <HAL_GPIO_Init+0xe6>
 8001d5a:	2502      	movs	r5, #2
 8001d5c:	e7a5      	b.n	8001caa <HAL_GPIO_Init+0xe6>
 8001d5e:	bf00      	nop
 8001d60:	40010400 	.word	0x40010400
 8001d64:	40021000 	.word	0x40021000
 8001d68:	40010800 	.word	0x40010800
 8001d6c:	10220000 	.word	0x10220000
 8001d70:	10310000 	.word	0x10310000
 8001d74:	10320000 	.word	0x10320000
 8001d78:	10120000 	.word	0x10120000

08001d7c <HAL_GPIO_DeInit>:
 8001d7c:	e92d 4ff7 	stmdb	sp!, {r0, r1, r2, r4, r5, r6, r7, r8, r9, sl, fp, lr}
 8001d80:	f04f 0b04 	mov.w	fp, #4
 8001d84:	2200      	movs	r2, #0
 8001d86:	f04f 0a01 	mov.w	sl, #1
 8001d8a:	f04f 080f 	mov.w	r8, #15
 8001d8e:	eb00 030b 	add.w	r3, r0, fp
 8001d92:	9301      	str	r3, [sp, #4]
 8001d94:	4b2e      	ldr	r3, [pc, #184]	; (8001e50 <HAL_GPIO_DeInit+0xd4>)
 8001d96:	fa31 f402 	lsrs.w	r4, r1, r2
 8001d9a:	d102      	bne.n	8001da2 <HAL_GPIO_DeInit+0x26>
 8001d9c:	b003      	add	sp, #12
 8001d9e:	e8bd 8ff0 	ldmia.w	sp!, {r4, r5, r6, r7, r8, r9, sl, fp, pc}
 8001da2:	fa0a f702 	lsl.w	r7, sl, r2
 8001da6:	400f      	ands	r7, r1
 8001da8:	d049      	beq.n	8001e3e <HAL_GPIO_DeInit+0xc2>
 8001daa:	f022 0403 	bic.w	r4, r2, #3
 8001dae:	f104 4480 	add.w	r4, r4, #1073741824	; 0x40000000
 8001db2:	4d28      	ldr	r5, [pc, #160]	; (8001e54 <HAL_GPIO_DeInit+0xd8>)
 8001db4:	f504 3480 	add.w	r4, r4, #65536	; 0x10000
 8001db8:	f002 0c03 	and.w	ip, r2, #3
 8001dbc:	68a6      	ldr	r6, [r4, #8]
 8001dbe:	ea4f 0c8c 	mov.w	ip, ip, lsl #2
 8001dc2:	fa08 f90c 	lsl.w	r9, r8, ip
 8001dc6:	42a8      	cmp	r0, r5
 8001dc8:	ea09 0e06 	and.w	lr, r9, r6
 8001dcc:	d039      	beq.n	8001e42 <HAL_GPIO_DeInit+0xc6>
 8001dce:	f505 6580 	add.w	r5, r5, #1024	; 0x400
 8001dd2:	42a8      	cmp	r0, r5
 8001dd4:	d037      	beq.n	8001e46 <HAL_GPIO_DeInit+0xca>
 8001dd6:	f505 6580 	add.w	r5, r5, #1024	; 0x400
 8001dda:	42a8      	cmp	r0, r5
 8001ddc:	d035      	beq.n	8001e4a <HAL_GPIO_DeInit+0xce>
 8001dde:	f505 6580 	add.w	r5, r5, #1024	; 0x400
 8001de2:	42a8      	cmp	r0, r5
 8001de4:	bf0c      	ite	eq
 8001de6:	2503      	moveq	r5, #3
 8001de8:	2504      	movne	r5, #4
 8001dea:	fa05 f50c 	lsl.w	r5, r5, ip
 8001dee:	4575      	cmp	r5, lr
 8001df0:	ea6f 0607 	mvn.w	r6, r7
 8001df4:	d10f      	bne.n	8001e16 <HAL_GPIO_DeInit+0x9a>
 8001df6:	68a5      	ldr	r5, [r4, #8]
 8001df8:	ea25 0509 	bic.w	r5, r5, r9
 8001dfc:	60a5      	str	r5, [r4, #8]
 8001dfe:	681c      	ldr	r4, [r3, #0]
 8001e00:	4034      	ands	r4, r6
 8001e02:	601c      	str	r4, [r3, #0]
 8001e04:	685c      	ldr	r4, [r3, #4]
 8001e06:	4034      	ands	r4, r6
 8001e08:	605c      	str	r4, [r3, #4]
 8001e0a:	689c      	ldr	r4, [r3, #8]
 8001e0c:	4034      	ands	r4, r6
 8001e0e:	609c      	str	r4, [r3, #8]
 8001e10:	68dc      	ldr	r4, [r3, #12]
 8001e12:	4034      	ands	r4, r6
 8001e14:	60dc      	str	r4, [r3, #12]
 8001e16:	2fff      	cmp	r7, #255	; 0xff
 8001e18:	bf94      	ite	ls
 8001e1a:	4607      	movls	r7, r0
 8001e1c:	9f01      	ldrhi	r7, [sp, #4]
 8001e1e:	ea4f 0482 	mov.w	r4, r2, lsl #2
 8001e22:	683d      	ldr	r5, [r7, #0]
 8001e24:	bf88      	it	hi
 8001e26:	3c20      	subhi	r4, #32
 8001e28:	fa08 fc04 	lsl.w	ip, r8, r4
 8001e2c:	ea25 050c 	bic.w	r5, r5, ip
 8001e30:	fa0b f404 	lsl.w	r4, fp, r4
 8001e34:	4325      	orrs	r5, r4
 8001e36:	603d      	str	r5, [r7, #0]
 8001e38:	68c4      	ldr	r4, [r0, #12]
 8001e3a:	4026      	ands	r6, r4
 8001e3c:	60c6      	str	r6, [r0, #12]
 8001e3e:	3201      	adds	r2, #1
 8001e40:	e7a9      	b.n	8001d96 <HAL_GPIO_DeInit+0x1a>
 8001e42:	2500      	movs	r5, #0
 8001e44:	e7d1      	b.n	8001dea <HAL_GPIO_DeInit+0x6e>
 8001e46:	2501      	movs	r5, #1
 8001e48:	e7cf      	b.n	8001dea <HAL_GPIO_DeInit+0x6e>
 8001e4a:	2502      	movs	r5, #2
 8001e4c:	e7cd      	b.n	8001dea <HAL_GPIO_DeInit+0x6e>
 8001e4e:	bf00      	nop
 8001e50:	40010400 	.word	0x40010400
 8001e54:	40010800 	.word	0x40010800

08001e58 <HAL_GPIO_WritePin>:
 8001e58:	b10a      	cbz	r2, 8001e5e <HAL_GPIO_WritePin+0x6>
 8001e5a:	6101      	str	r1, [r0, #16]
 8001e5c:	4770      	bx	lr
 8001e5e:	0409      	lsls	r1, r1, #16
 8001e60:	e7fb      	b.n	8001e5a <HAL_GPIO_WritePin+0x2>
	...

08001e64 <HAL_RCC_OscConfig>:
 8001e64:	e92d 41f3 	stmdb	sp!, {r0, r1, r4, r5, r6, r7, r8, lr}
 8001e68:	4605      	mov	r5, r0
 8001e6a:	b338      	cbz	r0, 8001ebc <HAL_RCC_OscConfig+0x58>
 8001e6c:	6803      	ldr	r3, [r0, #0]
 8001e6e:	07db      	lsls	r3, r3, #31
 8001e70:	d410      	bmi.n	8001e94 <HAL_RCC_OscConfig+0x30>
 8001e72:	682b      	ldr	r3, [r5, #0]
 8001e74:	079f      	lsls	r7, r3, #30
 8001e76:	d45e      	bmi.n	8001f36 <HAL_RCC_OscConfig+0xd2>
 8001e78:	682b      	ldr	r3, [r5, #0]
 8001e7a:	0719      	lsls	r1, r3, #28
 8001e7c:	f100 8095 	bmi.w	8001faa <HAL_RCC_OscConfig+0x146>
 8001e80:	682b      	ldr	r3, [r5, #0]
 8001e82:	075a      	lsls	r2, r3, #29
 8001e84:	f100 80bf 	bmi.w	8002006 <HAL_RCC_OscConfig+0x1a2>
 8001e88:	69e8      	ldr	r0, [r5, #28]
 8001e8a:	2800      	cmp	r0, #0
 8001e8c:	f040 812c 	bne.w	80020e8 <HAL_RCC_OscConfig+0x284>
 8001e90:	2000      	movs	r0, #0
 8001e92:	e029      	b.n	8001ee8 <HAL_RCC_OscConfig+0x84>
 8001e94:	4c8f      	ldr	r4, [pc, #572]	; (80020d4 <HAL_RCC_OscConfig+0x270>)
 8001e96:	6863      	ldr	r3, [r4, #4]
 8001e98:	f003 030c 	and.w	r3, r3, #12
 8001e9c:	2b04      	cmp	r3, #4
 8001e9e:	d007      	beq.n	8001eb0 <HAL_RCC_OscConfig+0x4c>
 8001ea0:	6863      	ldr	r3, [r4, #4]
 8001ea2:	f003 030c 	and.w	r3, r3, #12
 8001ea6:	2b08      	cmp	r3, #8
 8001ea8:	d10a      	bne.n	8001ec0 <HAL_RCC_OscConfig+0x5c>
 8001eaa:	6863      	ldr	r3, [r4, #4]
 8001eac:	03de      	lsls	r6, r3, #15
 8001eae:	d507      	bpl.n	8001ec0 <HAL_RCC_OscConfig+0x5c>
 8001eb0:	6823      	ldr	r3, [r4, #0]
 8001eb2:	039c      	lsls	r4, r3, #14
 8001eb4:	d5dd      	bpl.n	8001e72 <HAL_RCC_OscConfig+0xe>
 8001eb6:	686b      	ldr	r3, [r5, #4]
 8001eb8:	2b00      	cmp	r3, #0
 8001eba:	d1da      	bne.n	8001e72 <HAL_RCC_OscConfig+0xe>
 8001ebc:	2001      	movs	r0, #1
 8001ebe:	e013      	b.n	8001ee8 <HAL_RCC_OscConfig+0x84>
 8001ec0:	686b      	ldr	r3, [r5, #4]
 8001ec2:	f5b3 3f80 	cmp.w	r3, #65536	; 0x10000
 8001ec6:	d112      	bne.n	8001eee <HAL_RCC_OscConfig+0x8a>
 8001ec8:	6823      	ldr	r3, [r4, #0]
 8001eca:	f443 3380 	orr.w	r3, r3, #65536	; 0x10000
 8001ece:	6023      	str	r3, [r4, #0]
 8001ed0:	f7ff fac4 	bl	800145c <HAL_GetTick>
 8001ed4:	4606      	mov	r6, r0
 8001ed6:	6823      	ldr	r3, [r4, #0]
 8001ed8:	0398      	lsls	r0, r3, #14
 8001eda:	d4ca      	bmi.n	8001e72 <HAL_RCC_OscConfig+0xe>
 8001edc:	f7ff fabe 	bl	800145c <HAL_GetTick>
 8001ee0:	1b80      	subs	r0, r0, r6
 8001ee2:	2864      	cmp	r0, #100	; 0x64
 8001ee4:	d9f7      	bls.n	8001ed6 <HAL_RCC_OscConfig+0x72>
 8001ee6:	2003      	movs	r0, #3
 8001ee8:	b002      	add	sp, #8
 8001eea:	e8bd 81f0 	ldmia.w	sp!, {r4, r5, r6, r7, r8, pc}
 8001eee:	b99b      	cbnz	r3, 8001f18 <HAL_RCC_OscConfig+0xb4>
 8001ef0:	6823      	ldr	r3, [r4, #0]
 8001ef2:	f423 3380 	bic.w	r3, r3, #65536	; 0x10000
 8001ef6:	6023      	str	r3, [r4, #0]
 8001ef8:	6823      	ldr	r3, [r4, #0]
 8001efa:	f423 2380 	bic.w	r3, r3, #262144	; 0x40000
 8001efe:	6023      	str	r3, [r4, #0]
 8001f00:	f7ff faac 	bl	800145c <HAL_GetTick>
 8001f04:	4606      	mov	r6, r0
 8001f06:	6823      	ldr	r3, [r4, #0]
 8001f08:	0399      	lsls	r1, r3, #14
 8001f0a:	d5b2      	bpl.n	8001e72 <HAL_RCC_OscConfig+0xe>
 8001f0c:	f7ff faa6 	bl	800145c <HAL_GetTick>
 8001f10:	1b80      	subs	r0, r0, r6
 8001f12:	2864      	cmp	r0, #100	; 0x64
 8001f14:	d9f7      	bls.n	8001f06 <HAL_RCC_OscConfig+0xa2>
 8001f16:	e7e6      	b.n	8001ee6 <HAL_RCC_OscConfig+0x82>
 8001f18:	f5b3 2fa0 	cmp.w	r3, #327680	; 0x50000
 8001f1c:	6823      	ldr	r3, [r4, #0]
 8001f1e:	d103      	bne.n	8001f28 <HAL_RCC_OscConfig+0xc4>
 8001f20:	f443 2380 	orr.w	r3, r3, #262144	; 0x40000
 8001f24:	6023      	str	r3, [r4, #0]
 8001f26:	e7cf      	b.n	8001ec8 <HAL_RCC_OscConfig+0x64>
 8001f28:	f423 3380 	bic.w	r3, r3, #65536	; 0x10000
 8001f2c:	6023      	str	r3, [r4, #0]
 8001f2e:	6823      	ldr	r3, [r4, #0]
 8001f30:	f423 2380 	bic.w	r3, r3, #262144	; 0x40000
 8001f34:	e7cb      	b.n	8001ece <HAL_RCC_OscConfig+0x6a>
 8001f36:	4c67      	ldr	r4, [pc, #412]	; (80020d4 <HAL_RCC_OscConfig+0x270>)
 8001f38:	6863      	ldr	r3, [r4, #4]
 8001f3a:	f013 0f0c 	tst.w	r3, #12
 8001f3e:	d007      	beq.n	8001f50 <HAL_RCC_OscConfig+0xec>
 8001f40:	6863      	ldr	r3, [r4, #4]
 8001f42:	f003 030c 	and.w	r3, r3, #12
 8001f46:	2b08      	cmp	r3, #8
 8001f48:	d110      	bne.n	8001f6c <HAL_RCC_OscConfig+0x108>
 8001f4a:	6863      	ldr	r3, [r4, #4]
 8001f4c:	03da      	lsls	r2, r3, #15
 8001f4e:	d40d      	bmi.n	8001f6c <HAL_RCC_OscConfig+0x108>
 8001f50:	6823      	ldr	r3, [r4, #0]
 8001f52:	079b      	lsls	r3, r3, #30
 8001f54:	d502      	bpl.n	8001f5c <HAL_RCC_OscConfig+0xf8>
 8001f56:	692b      	ldr	r3, [r5, #16]
 8001f58:	2b01      	cmp	r3, #1
 8001f5a:	d1af      	bne.n	8001ebc <HAL_RCC_OscConfig+0x58>
 8001f5c:	6823      	ldr	r3, [r4, #0]
 8001f5e:	696a      	ldr	r2, [r5, #20]
 8001f60:	f023 03f8 	bic.w	r3, r3, #248	; 0xf8
 8001f64:	ea43 03c2 	orr.w	r3, r3, r2, lsl #3
 8001f68:	6023      	str	r3, [r4, #0]
 8001f6a:	e785      	b.n	8001e78 <HAL_RCC_OscConfig+0x14>
 8001f6c:	692a      	ldr	r2, [r5, #16]
 8001f6e:	4b5a      	ldr	r3, [pc, #360]	; (80020d8 <HAL_RCC_OscConfig+0x274>)
 8001f70:	b16a      	cbz	r2, 8001f8e <HAL_RCC_OscConfig+0x12a>
 8001f72:	2201      	movs	r2, #1
 8001f74:	601a      	str	r2, [r3, #0]
 8001f76:	f7ff fa71 	bl	800145c <HAL_GetTick>
 8001f7a:	4606      	mov	r6, r0
 8001f7c:	6823      	ldr	r3, [r4, #0]
 8001f7e:	079f      	lsls	r7, r3, #30
 8001f80:	d4ec      	bmi.n	8001f5c <HAL_RCC_OscConfig+0xf8>
 8001f82:	f7ff fa6b 	bl	800145c <HAL_GetTick>
 8001f86:	1b80      	subs	r0, r0, r6
 8001f88:	2802      	cmp	r0, #2
 8001f8a:	d9f7      	bls.n	8001f7c <HAL_RCC_OscConfig+0x118>
 8001f8c:	e7ab      	b.n	8001ee6 <HAL_RCC_OscConfig+0x82>
 8001f8e:	601a      	str	r2, [r3, #0]
 8001f90:	f7ff fa64 	bl	800145c <HAL_GetTick>
 8001f94:	4606      	mov	r6, r0
 8001f96:	6823      	ldr	r3, [r4, #0]
 8001f98:	0798      	lsls	r0, r3, #30
 8001f9a:	f57f af6d 	bpl.w	8001e78 <HAL_RCC_OscConfig+0x14>
 8001f9e:	f7ff fa5d 	bl	800145c <HAL_GetTick>
 8001fa2:	1b80      	subs	r0, r0, r6
 8001fa4:	2802      	cmp	r0, #2
 8001fa6:	d9f6      	bls.n	8001f96 <HAL_RCC_OscConfig+0x132>
 8001fa8:	e79d      	b.n	8001ee6 <HAL_RCC_OscConfig+0x82>
 8001faa:	69aa      	ldr	r2, [r5, #24]
 8001fac:	4e49      	ldr	r6, [pc, #292]	; (80020d4 <HAL_RCC_OscConfig+0x270>)
 8001fae:	4b4b      	ldr	r3, [pc, #300]	; (80020dc <HAL_RCC_OscConfig+0x278>)
 8001fb0:	b1da      	cbz	r2, 8001fea <HAL_RCC_OscConfig+0x186>
 8001fb2:	2201      	movs	r2, #1
 8001fb4:	601a      	str	r2, [r3, #0]
 8001fb6:	f7ff fa51 	bl	800145c <HAL_GetTick>
 8001fba:	4604      	mov	r4, r0
 8001fbc:	6a73      	ldr	r3, [r6, #36]	; 0x24
 8001fbe:	079b      	lsls	r3, r3, #30
 8001fc0:	d50d      	bpl.n	8001fde <HAL_RCC_OscConfig+0x17a>
 8001fc2:	f44f 52fa 	mov.w	r2, #8000	; 0x1f40
 8001fc6:	4b46      	ldr	r3, [pc, #280]	; (80020e0 <HAL_RCC_OscConfig+0x27c>)
 8001fc8:	681b      	ldr	r3, [r3, #0]
 8001fca:	fbb3 f3f2 	udiv	r3, r3, r2
 8001fce:	9301      	str	r3, [sp, #4]
 8001fd0:	bf00      	nop
 8001fd2:	9b01      	ldr	r3, [sp, #4]
 8001fd4:	1e5a      	subs	r2, r3, #1
 8001fd6:	9201      	str	r2, [sp, #4]
 8001fd8:	2b00      	cmp	r3, #0
 8001fda:	d1f9      	bne.n	8001fd0 <HAL_RCC_OscConfig+0x16c>
 8001fdc:	e750      	b.n	8001e80 <HAL_RCC_OscConfig+0x1c>
 8001fde:	f7ff fa3d 	bl	800145c <HAL_GetTick>
 8001fe2:	1b00      	subs	r0, r0, r4
 8001fe4:	2802      	cmp	r0, #2
 8001fe6:	d9e9      	bls.n	8001fbc <HAL_RCC_OscConfig+0x158>
 8001fe8:	e77d      	b.n	8001ee6 <HAL_RCC_OscConfig+0x82>
 8001fea:	601a      	str	r2, [r3, #0]
 8001fec:	f7ff fa36 	bl	800145c <HAL_GetTick>
 8001ff0:	4604      	mov	r4, r0
 8001ff2:	6a73      	ldr	r3, [r6, #36]	; 0x24
 8001ff4:	079f      	lsls	r7, r3, #30
 8001ff6:	f57f af43 	bpl.w	8001e80 <HAL_RCC_OscConfig+0x1c>
 8001ffa:	f7ff fa2f 	bl	800145c <HAL_GetTick>
 8001ffe:	1b00      	subs	r0, r0, r4
 8002000:	2802      	cmp	r0, #2
 8002002:	d9f6      	bls.n	8001ff2 <HAL_RCC_OscConfig+0x18e>
 8002004:	e76f      	b.n	8001ee6 <HAL_RCC_OscConfig+0x82>
 8002006:	4c33      	ldr	r4, [pc, #204]	; (80020d4 <HAL_RCC_OscConfig+0x270>)
 8002008:	69e3      	ldr	r3, [r4, #28]
 800200a:	00d8      	lsls	r0, r3, #3
 800200c:	d424      	bmi.n	8002058 <HAL_RCC_OscConfig+0x1f4>
 800200e:	2701      	movs	r7, #1
 8002010:	69e3      	ldr	r3, [r4, #28]
 8002012:	f043 5380 	orr.w	r3, r3, #268435456	; 0x10000000
 8002016:	61e3      	str	r3, [r4, #28]
 8002018:	69e3      	ldr	r3, [r4, #28]
 800201a:	f003 5380 	and.w	r3, r3, #268435456	; 0x10000000
 800201e:	9300      	str	r3, [sp, #0]
 8002020:	9b00      	ldr	r3, [sp, #0]
 8002022:	4e30      	ldr	r6, [pc, #192]	; (80020e4 <HAL_RCC_OscConfig+0x280>)
 8002024:	6833      	ldr	r3, [r6, #0]
 8002026:	05d9      	lsls	r1, r3, #23
 8002028:	d518      	bpl.n	800205c <HAL_RCC_OscConfig+0x1f8>
 800202a:	68eb      	ldr	r3, [r5, #12]
 800202c:	2b01      	cmp	r3, #1
 800202e:	d126      	bne.n	800207e <HAL_RCC_OscConfig+0x21a>
 8002030:	6a23      	ldr	r3, [r4, #32]
 8002032:	f043 0301 	orr.w	r3, r3, #1
 8002036:	6223      	str	r3, [r4, #32]
 8002038:	f7ff fa10 	bl	800145c <HAL_GetTick>
 800203c:	f241 3888 	movw	r8, #5000	; 0x1388
 8002040:	4606      	mov	r6, r0
 8002042:	6a23      	ldr	r3, [r4, #32]
 8002044:	079b      	lsls	r3, r3, #30
 8002046:	d53f      	bpl.n	80020c8 <HAL_RCC_OscConfig+0x264>
 8002048:	2f00      	cmp	r7, #0
 800204a:	f43f af1d 	beq.w	8001e88 <HAL_RCC_OscConfig+0x24>
 800204e:	69e3      	ldr	r3, [r4, #28]
 8002050:	f023 5380 	bic.w	r3, r3, #268435456	; 0x10000000
 8002054:	61e3      	str	r3, [r4, #28]
 8002056:	e717      	b.n	8001e88 <HAL_RCC_OscConfig+0x24>
 8002058:	2700      	movs	r7, #0
 800205a:	e7e2      	b.n	8002022 <HAL_RCC_OscConfig+0x1be>
 800205c:	6833      	ldr	r3, [r6, #0]
 800205e:	f443 7380 	orr.w	r3, r3, #256	; 0x100
 8002062:	6033      	str	r3, [r6, #0]
 8002064:	f7ff f9fa 	bl	800145c <HAL_GetTick>
 8002068:	4680      	mov	r8, r0
 800206a:	6833      	ldr	r3, [r6, #0]
 800206c:	05da      	lsls	r2, r3, #23
 800206e:	d4dc      	bmi.n	800202a <HAL_RCC_OscConfig+0x1c6>
 8002070:	f7ff f9f4 	bl	800145c <HAL_GetTick>
 8002074:	eba0 0008 	sub.w	r0, r0, r8
 8002078:	2864      	cmp	r0, #100	; 0x64
 800207a:	d9f6      	bls.n	800206a <HAL_RCC_OscConfig+0x206>
 800207c:	e733      	b.n	8001ee6 <HAL_RCC_OscConfig+0x82>
 800207e:	b9ab      	cbnz	r3, 80020ac <HAL_RCC_OscConfig+0x248>
 8002080:	6a23      	ldr	r3, [r4, #32]
 8002082:	f241 3888 	movw	r8, #5000	; 0x1388
 8002086:	f023 0301 	bic.w	r3, r3, #1
 800208a:	6223      	str	r3, [r4, #32]
 800208c:	6a23      	ldr	r3, [r4, #32]
 800208e:	f023 0304 	bic.w	r3, r3, #4
 8002092:	6223      	str	r3, [r4, #32]
 8002094:	f7ff f9e2 	bl	800145c <HAL_GetTick>
 8002098:	4606      	mov	r6, r0
 800209a:	6a23      	ldr	r3, [r4, #32]
 800209c:	0798      	lsls	r0, r3, #30
 800209e:	d5d3      	bpl.n	8002048 <HAL_RCC_OscConfig+0x1e4>
 80020a0:	f7ff f9dc 	bl	800145c <HAL_GetTick>
 80020a4:	1b80      	subs	r0, r0, r6
 80020a6:	4540      	cmp	r0, r8
 80020a8:	d9f7      	bls.n	800209a <HAL_RCC_OscConfig+0x236>
 80020aa:	e71c      	b.n	8001ee6 <HAL_RCC_OscConfig+0x82>
 80020ac:	2b05      	cmp	r3, #5
 80020ae:	6a23      	ldr	r3, [r4, #32]
 80020b0:	d103      	bne.n	80020ba <HAL_RCC_OscConfig+0x256>
 80020b2:	f043 0304 	orr.w	r3, r3, #4
 80020b6:	6223      	str	r3, [r4, #32]
 80020b8:	e7ba      	b.n	8002030 <HAL_RCC_OscConfig+0x1cc>
 80020ba:	f023 0301 	bic.w	r3, r3, #1
 80020be:	6223      	str	r3, [r4, #32]
 80020c0:	6a23      	ldr	r3, [r4, #32]
 80020c2:	f023 0304 	bic.w	r3, r3, #4
 80020c6:	e7b6      	b.n	8002036 <HAL_RCC_OscConfig+0x1d2>
 80020c8:	f7ff f9c8 	bl	800145c <HAL_GetTick>
 80020cc:	1b80      	subs	r0, r0, r6
 80020ce:	4540      	cmp	r0, r8
 80020d0:	d9b7      	bls.n	8002042 <HAL_RCC_OscConfig+0x1de>
 80020d2:	e708      	b.n	8001ee6 <HAL_RCC_OscConfig+0x82>
 80020d4:	40021000 	.word	0x40021000
 80020d8:	42420000 	.word	0x42420000
 80020dc:	42420480 	.word	0x42420480
 80020e0:	20000068 	.word	0x20000068
 80020e4:	40007000 	.word	0x40007000
 80020e8:	4b2a      	ldr	r3, [pc, #168]	; (8002194 <HAL_RCC_OscConfig+0x330>)
 80020ea:	685a      	ldr	r2, [r3, #4]
 80020ec:	461c      	mov	r4, r3
 80020ee:	f002 020c 	and.w	r2, r2, #12
 80020f2:	2a08      	cmp	r2, #8
 80020f4:	d03d      	beq.n	8002172 <HAL_RCC_OscConfig+0x30e>
 80020f6:	2300      	movs	r3, #0
 80020f8:	4e27      	ldr	r6, [pc, #156]	; (8002198 <HAL_RCC_OscConfig+0x334>)
 80020fa:	2802      	cmp	r0, #2
 80020fc:	6033      	str	r3, [r6, #0]
 80020fe:	d12b      	bne.n	8002158 <HAL_RCC_OscConfig+0x2f4>
 8002100:	f7ff f9ac 	bl	800145c <HAL_GetTick>
 8002104:	4607      	mov	r7, r0
 8002106:	6823      	ldr	r3, [r4, #0]
 8002108:	0199      	lsls	r1, r3, #6
 800210a:	d41f      	bmi.n	800214c <HAL_RCC_OscConfig+0x2e8>
 800210c:	6a2b      	ldr	r3, [r5, #32]
 800210e:	f5b3 3f80 	cmp.w	r3, #65536	; 0x10000
 8002112:	d105      	bne.n	8002120 <HAL_RCC_OscConfig+0x2bc>
 8002114:	6862      	ldr	r2, [r4, #4]
 8002116:	68a9      	ldr	r1, [r5, #8]
 8002118:	f422 3200 	bic.w	r2, r2, #131072	; 0x20000
 800211c:	430a      	orrs	r2, r1
 800211e:	6062      	str	r2, [r4, #4]
 8002120:	6a69      	ldr	r1, [r5, #36]	; 0x24
 8002122:	6862      	ldr	r2, [r4, #4]
 8002124:	430b      	orrs	r3, r1
 8002126:	f422 1274 	bic.w	r2, r2, #3997696	; 0x3d0000
 800212a:	4313      	orrs	r3, r2
 800212c:	6063      	str	r3, [r4, #4]
 800212e:	2301      	movs	r3, #1
 8002130:	6033      	str	r3, [r6, #0]
 8002132:	f7ff f993 	bl	800145c <HAL_GetTick>
 8002136:	4605      	mov	r5, r0
 8002138:	6823      	ldr	r3, [r4, #0]
 800213a:	019a      	lsls	r2, r3, #6
 800213c:	f53f aea8 	bmi.w	8001e90 <HAL_RCC_OscConfig+0x2c>
 8002140:	f7ff f98c 	bl	800145c <HAL_GetTick>
 8002144:	1b40      	subs	r0, r0, r5
 8002146:	2802      	cmp	r0, #2
 8002148:	d9f6      	bls.n	8002138 <HAL_RCC_OscConfig+0x2d4>
 800214a:	e6cc      	b.n	8001ee6 <HAL_RCC_OscConfig+0x82>
 800214c:	f7ff f986 	bl	800145c <HAL_GetTick>
 8002150:	1bc0      	subs	r0, r0, r7
 8002152:	2802      	cmp	r0, #2
 8002154:	d9d7      	bls.n	8002106 <HAL_RCC_OscConfig+0x2a2>
 8002156:	e6c6      	b.n	8001ee6 <HAL_RCC_OscConfig+0x82>
 8002158:	f7ff f980 	bl	800145c <HAL_GetTick>
 800215c:	4605      	mov	r5, r0
 800215e:	6823      	ldr	r3, [r4, #0]
 8002160:	019b      	lsls	r3, r3, #6
 8002162:	f57f ae95 	bpl.w	8001e90 <HAL_RCC_OscConfig+0x2c>
 8002166:	f7ff f979 	bl	800145c <HAL_GetTick>
 800216a:	1b40      	subs	r0, r0, r5
 800216c:	2802      	cmp	r0, #2
 800216e:	d9f6      	bls.n	800215e <HAL_RCC_OscConfig+0x2fa>
 8002170:	e6b9      	b.n	8001ee6 <HAL_RCC_OscConfig+0x82>
 8002172:	2801      	cmp	r0, #1
 8002174:	f43f aeb8 	beq.w	8001ee8 <HAL_RCC_OscConfig+0x84>
 8002178:	685b      	ldr	r3, [r3, #4]
 800217a:	6a2a      	ldr	r2, [r5, #32]
 800217c:	f403 3180 	and.w	r1, r3, #65536	; 0x10000
 8002180:	4291      	cmp	r1, r2
 8002182:	f47f ae9b 	bne.w	8001ebc <HAL_RCC_OscConfig+0x58>
 8002186:	6a6a      	ldr	r2, [r5, #36]	; 0x24
 8002188:	f403 1370 	and.w	r3, r3, #3932160	; 0x3c0000
 800218c:	4293      	cmp	r3, r2
 800218e:	f43f ae7f 	beq.w	8001e90 <HAL_RCC_OscConfig+0x2c>
 8002192:	e693      	b.n	8001ebc <HAL_RCC_OscConfig+0x58>
 8002194:	40021000 	.word	0x40021000
 8002198:	42420060 	.word	0x42420060

0800219c <HAL_RCC_GetSysClockFreq>:
 800219c:	b530      	push	{r4, r5, lr}
 800219e:	4b18      	ldr	r3, [pc, #96]	; (8002200 <HAL_RCC_GetSysClockFreq+0x64>)
 80021a0:	b087      	sub	sp, #28
 80021a2:	ac02      	add	r4, sp, #8
 80021a4:	f103 0510 	add.w	r5, r3, #16
 80021a8:	4622      	mov	r2, r4
 80021aa:	6818      	ldr	r0, [r3, #0]
 80021ac:	6859      	ldr	r1, [r3, #4]
 80021ae:	3308      	adds	r3, #8
 80021b0:	c203      	stmia	r2!, {r0, r1}
 80021b2:	42ab      	cmp	r3, r5
 80021b4:	4614      	mov	r4, r2
 80021b6:	d1f7      	bne.n	80021a8 <HAL_RCC_GetSysClockFreq+0xc>
 80021b8:	f240 2301 	movw	r3, #513	; 0x201
 80021bc:	4911      	ldr	r1, [pc, #68]	; (8002204 <HAL_RCC_GetSysClockFreq+0x68>)
 80021be:	f8ad 3004 	strh.w	r3, [sp, #4]
 80021c2:	684b      	ldr	r3, [r1, #4]
 80021c4:	f003 020c 	and.w	r2, r3, #12
 80021c8:	2a08      	cmp	r2, #8
 80021ca:	d117      	bne.n	80021fc <HAL_RCC_GetSysClockFreq+0x60>
 80021cc:	f3c3 4283 	ubfx	r2, r3, #18, #4
 80021d0:	a806      	add	r0, sp, #24
 80021d2:	4402      	add	r2, r0
 80021d4:	03db      	lsls	r3, r3, #15
 80021d6:	f812 2c10 	ldrb.w	r2, [r2, #-16]
 80021da:	d50c      	bpl.n	80021f6 <HAL_RCC_GetSysClockFreq+0x5a>
 80021dc:	684b      	ldr	r3, [r1, #4]
 80021de:	480a      	ldr	r0, [pc, #40]	; (8002208 <HAL_RCC_GetSysClockFreq+0x6c>)
 80021e0:	f3c3 4340 	ubfx	r3, r3, #17, #1
 80021e4:	4350      	muls	r0, r2
 80021e6:	aa06      	add	r2, sp, #24
 80021e8:	4413      	add	r3, r2
 80021ea:	f813 3c14 	ldrb.w	r3, [r3, #-20]
 80021ee:	fbb0 f0f3 	udiv	r0, r0, r3
 80021f2:	b007      	add	sp, #28
 80021f4:	bd30      	pop	{r4, r5, pc}
 80021f6:	4805      	ldr	r0, [pc, #20]	; (800220c <HAL_RCC_GetSysClockFreq+0x70>)
 80021f8:	4350      	muls	r0, r2
 80021fa:	e7fa      	b.n	80021f2 <HAL_RCC_GetSysClockFreq+0x56>
 80021fc:	4802      	ldr	r0, [pc, #8]	; (8002208 <HAL_RCC_GetSysClockFreq+0x6c>)
 80021fe:	e7f8      	b.n	80021f2 <HAL_RCC_GetSysClockFreq+0x56>
 8002200:	080044b0 	.word	0x080044b0
 8002204:	40021000 	.word	0x40021000
 8002208:	007a1200 	.word	0x007a1200
 800220c:	003d0900 	.word	0x003d0900

08002210 <HAL_RCC_ClockConfig>:
 8002210:	e92d 41f0 	stmdb	sp!, {r4, r5, r6, r7, r8, lr}
 8002214:	460d      	mov	r5, r1
 8002216:	4604      	mov	r4, r0
 8002218:	b910      	cbnz	r0, 8002220 <HAL_RCC_ClockConfig+0x10>
 800221a:	2001      	movs	r0, #1
 800221c:	e8bd 81f0 	ldmia.w	sp!, {r4, r5, r6, r7, r8, pc}
 8002220:	4a44      	ldr	r2, [pc, #272]	; (8002334 <HAL_RCC_ClockConfig+0x124>)
 8002222:	6813      	ldr	r3, [r2, #0]
 8002224:	f003 0307 	and.w	r3, r3, #7
 8002228:	428b      	cmp	r3, r1
 800222a:	d328      	bcc.n	800227e <HAL_RCC_ClockConfig+0x6e>
 800222c:	6821      	ldr	r1, [r4, #0]
 800222e:	078e      	lsls	r6, r1, #30
 8002230:	d430      	bmi.n	8002294 <HAL_RCC_ClockConfig+0x84>
 8002232:	07ca      	lsls	r2, r1, #31
 8002234:	d443      	bmi.n	80022be <HAL_RCC_ClockConfig+0xae>
 8002236:	4a3f      	ldr	r2, [pc, #252]	; (8002334 <HAL_RCC_ClockConfig+0x124>)
 8002238:	6813      	ldr	r3, [r2, #0]
 800223a:	f003 0307 	and.w	r3, r3, #7
 800223e:	42ab      	cmp	r3, r5
 8002240:	d865      	bhi.n	800230e <HAL_RCC_ClockConfig+0xfe>
 8002242:	6822      	ldr	r2, [r4, #0]
 8002244:	4d3c      	ldr	r5, [pc, #240]	; (8002338 <HAL_RCC_ClockConfig+0x128>)
 8002246:	f012 0f04 	tst.w	r2, #4
 800224a:	d16c      	bne.n	8002326 <HAL_RCC_ClockConfig+0x116>
 800224c:	0713      	lsls	r3, r2, #28
 800224e:	d506      	bpl.n	800225e <HAL_RCC_ClockConfig+0x4e>
 8002250:	686b      	ldr	r3, [r5, #4]
 8002252:	6922      	ldr	r2, [r4, #16]
 8002254:	f423 5360 	bic.w	r3, r3, #14336	; 0x3800
 8002258:	ea43 03c2 	orr.w	r3, r3, r2, lsl #3
 800225c:	606b      	str	r3, [r5, #4]
 800225e:	f7ff ff9d 	bl	800219c <HAL_RCC_GetSysClockFreq>
 8002262:	686b      	ldr	r3, [r5, #4]
 8002264:	4a35      	ldr	r2, [pc, #212]	; (800233c <HAL_RCC_ClockConfig+0x12c>)
 8002266:	f3c3 1303 	ubfx	r3, r3, #4, #4
 800226a:	5cd3      	ldrb	r3, [r2, r3]
 800226c:	40d8      	lsrs	r0, r3
 800226e:	4b34      	ldr	r3, [pc, #208]	; (8002340 <HAL_RCC_ClockConfig+0x130>)
 8002270:	6018      	str	r0, [r3, #0]
 8002272:	4b34      	ldr	r3, [pc, #208]	; (8002344 <HAL_RCC_ClockConfig+0x134>)
 8002274:	6818      	ldr	r0, [r3, #0]
 8002276:	f7ff f8af 	bl	80013d8 <HAL_InitTick>
 800227a:	2000      	movs	r0, #0
 800227c:	e7ce      	b.n	800221c <HAL_RCC_ClockConfig+0xc>
 800227e:	6813      	ldr	r3, [r2, #0]
 8002280:	f023 0307 	bic.w	r3, r3, #7
 8002284:	430b      	orrs	r3, r1
 8002286:	6013      	str	r3, [r2, #0]
 8002288:	6813      	ldr	r3, [r2, #0]
 800228a:	f003 0307 	and.w	r3, r3, #7
 800228e:	428b      	cmp	r3, r1
 8002290:	d1c3      	bne.n	800221a <HAL_RCC_ClockConfig+0xa>
 8002292:	e7cb      	b.n	800222c <HAL_RCC_ClockConfig+0x1c>
 8002294:	4b28      	ldr	r3, [pc, #160]	; (8002338 <HAL_RCC_ClockConfig+0x128>)
 8002296:	f011 0f04 	tst.w	r1, #4
 800229a:	bf1e      	ittt	ne
 800229c:	685a      	ldrne	r2, [r3, #4]
 800229e:	f442 62e0 	orrne.w	r2, r2, #1792	; 0x700
 80022a2:	605a      	strne	r2, [r3, #4]
 80022a4:	0708      	lsls	r0, r1, #28
 80022a6:	bf42      	ittt	mi
 80022a8:	685a      	ldrmi	r2, [r3, #4]
 80022aa:	f442 5260 	orrmi.w	r2, r2, #14336	; 0x3800
 80022ae:	605a      	strmi	r2, [r3, #4]
 80022b0:	685a      	ldr	r2, [r3, #4]
 80022b2:	68a0      	ldr	r0, [r4, #8]
 80022b4:	f022 02f0 	bic.w	r2, r2, #240	; 0xf0
 80022b8:	4302      	orrs	r2, r0
 80022ba:	605a      	str	r2, [r3, #4]
 80022bc:	e7b9      	b.n	8002232 <HAL_RCC_ClockConfig+0x22>
 80022be:	6862      	ldr	r2, [r4, #4]
 80022c0:	4e1d      	ldr	r6, [pc, #116]	; (8002338 <HAL_RCC_ClockConfig+0x128>)
 80022c2:	2a01      	cmp	r2, #1
 80022c4:	6833      	ldr	r3, [r6, #0]
 80022c6:	d11a      	bne.n	80022fe <HAL_RCC_ClockConfig+0xee>
 80022c8:	f413 3f00 	tst.w	r3, #131072	; 0x20000
 80022cc:	d0a5      	beq.n	800221a <HAL_RCC_ClockConfig+0xa>
 80022ce:	6873      	ldr	r3, [r6, #4]
 80022d0:	f241 3888 	movw	r8, #5000	; 0x1388
 80022d4:	f023 0303 	bic.w	r3, r3, #3
 80022d8:	4313      	orrs	r3, r2
 80022da:	6073      	str	r3, [r6, #4]
 80022dc:	f7ff f8be 	bl	800145c <HAL_GetTick>
 80022e0:	4607      	mov	r7, r0
 80022e2:	6873      	ldr	r3, [r6, #4]
 80022e4:	6862      	ldr	r2, [r4, #4]
 80022e6:	f003 030c 	and.w	r3, r3, #12
 80022ea:	ebb3 0f82 	cmp.w	r3, r2, lsl #2
 80022ee:	d0a2      	beq.n	8002236 <HAL_RCC_ClockConfig+0x26>
 80022f0:	f7ff f8b4 	bl	800145c <HAL_GetTick>
 80022f4:	1bc0      	subs	r0, r0, r7
 80022f6:	4540      	cmp	r0, r8
 80022f8:	d9f3      	bls.n	80022e2 <HAL_RCC_ClockConfig+0xd2>
 80022fa:	2003      	movs	r0, #3
 80022fc:	e78e      	b.n	800221c <HAL_RCC_ClockConfig+0xc>
 80022fe:	2a02      	cmp	r2, #2
 8002300:	d102      	bne.n	8002308 <HAL_RCC_ClockConfig+0xf8>
 8002302:	f013 7f00 	tst.w	r3, #33554432	; 0x2000000
 8002306:	e7e1      	b.n	80022cc <HAL_RCC_ClockConfig+0xbc>
 8002308:	f013 0f02 	tst.w	r3, #2
 800230c:	e7de      	b.n	80022cc <HAL_RCC_ClockConfig+0xbc>
 800230e:	6813      	ldr	r3, [r2, #0]
 8002310:	f023 0307 	bic.w	r3, r3, #7
 8002314:	432b      	orrs	r3, r5
 8002316:	6013      	str	r3, [r2, #0]
 8002318:	6813      	ldr	r3, [r2, #0]
 800231a:	f003 0307 	and.w	r3, r3, #7
 800231e:	42ab      	cmp	r3, r5
 8002320:	f47f af7b 	bne.w	800221a <HAL_RCC_ClockConfig+0xa>
 8002324:	e78d      	b.n	8002242 <HAL_RCC_ClockConfig+0x32>
 8002326:	686b      	ldr	r3, [r5, #4]
 8002328:	68e1      	ldr	r1, [r4, #12]
 800232a:	f423 63e0 	bic.w	r3, r3, #1792	; 0x700
 800232e:	430b      	orrs	r3, r1
 8002330:	606b      	str	r3, [r5, #4]
 8002332:	e78b      	b.n	800224c <HAL_RCC_ClockConfig+0x3c>
 8002334:	40022000 	.word	0x40022000
 8002338:	40021000 	.word	0x40021000
 800233c:	08004498 	.word	0x08004498
 8002340:	20000068 	.word	0x20000068
 8002344:	20000070 	.word	0x20000070

08002348 <HAL_RCC_GetPCLK1Freq>:
 8002348:	4b04      	ldr	r3, [pc, #16]	; (800235c <HAL_RCC_GetPCLK1Freq+0x14>)
 800234a:	4a05      	ldr	r2, [pc, #20]	; (8002360 <HAL_RCC_GetPCLK1Freq+0x18>)
 800234c:	685b      	ldr	r3, [r3, #4]
 800234e:	f3c3 2302 	ubfx	r3, r3, #8, #3
 8002352:	5cd3      	ldrb	r3, [r2, r3]
 8002354:	4a03      	ldr	r2, [pc, #12]	; (8002364 <HAL_RCC_GetPCLK1Freq+0x1c>)
 8002356:	6810      	ldr	r0, [r2, #0]
 8002358:	40d8      	lsrs	r0, r3
 800235a:	4770      	bx	lr
 800235c:	40021000 	.word	0x40021000
 8002360:	080044a8 	.word	0x080044a8
 8002364:	20000068 	.word	0x20000068

08002368 <HAL_RCC_GetPCLK2Freq>:
 8002368:	4b04      	ldr	r3, [pc, #16]	; (800237c <HAL_RCC_GetPCLK2Freq+0x14>)
 800236a:	4a05      	ldr	r2, [pc, #20]	; (8002380 <HAL_RCC_GetPCLK2Freq+0x18>)
 800236c:	685b      	ldr	r3, [r3, #4]
 800236e:	f3c3 23c2 	ubfx	r3, r3, #11, #3
 8002372:	5cd3      	ldrb	r3, [r2, r3]
 8002374:	4a03      	ldr	r2, [pc, #12]	; (8002384 <HAL_RCC_GetPCLK2Freq+0x1c>)
 8002376:	6810      	ldr	r0, [r2, #0]
 8002378:	40d8      	lsrs	r0, r3
 800237a:	4770      	bx	lr
 800237c:	40021000 	.word	0x40021000
 8002380:	080044a8 	.word	0x080044a8
 8002384:	20000068 	.word	0x20000068

08002388 <HAL_RCCEx_PeriphCLKConfig>:
 8002388:	6803      	ldr	r3, [r0, #0]
 800238a:	e92d 41f3 	stmdb	sp!, {r0, r1, r4, r5, r6, r7, r8, lr}
 800238e:	07d9      	lsls	r1, r3, #31
 8002390:	4605      	mov	r5, r0
 8002392:	d520      	bpl.n	80023d6 <HAL_RCCEx_PeriphCLKConfig+0x4e>
 8002394:	4c35      	ldr	r4, [pc, #212]	; (800246c <HAL_RCCEx_PeriphCLKConfig+0xe4>)
 8002396:	69e3      	ldr	r3, [r4, #28]
 8002398:	00da      	lsls	r2, r3, #3
 800239a:	d432      	bmi.n	8002402 <HAL_RCCEx_PeriphCLKConfig+0x7a>
 800239c:	2701      	movs	r7, #1
 800239e:	69e3      	ldr	r3, [r4, #28]
 80023a0:	f043 5380 	orr.w	r3, r3, #268435456	; 0x10000000
 80023a4:	61e3      	str	r3, [r4, #28]
 80023a6:	69e3      	ldr	r3, [r4, #28]
 80023a8:	f003 5380 	and.w	r3, r3, #268435456	; 0x10000000
 80023ac:	9301      	str	r3, [sp, #4]
 80023ae:	9b01      	ldr	r3, [sp, #4]
 80023b0:	4e2f      	ldr	r6, [pc, #188]	; (8002470 <HAL_RCCEx_PeriphCLKConfig+0xe8>)
 80023b2:	6833      	ldr	r3, [r6, #0]
 80023b4:	05db      	lsls	r3, r3, #23
 80023b6:	d526      	bpl.n	8002406 <HAL_RCCEx_PeriphCLKConfig+0x7e>
 80023b8:	6a23      	ldr	r3, [r4, #32]
 80023ba:	f413 7340 	ands.w	r3, r3, #768	; 0x300
 80023be:	d136      	bne.n	800242e <HAL_RCCEx_PeriphCLKConfig+0xa6>
 80023c0:	6a23      	ldr	r3, [r4, #32]
 80023c2:	686a      	ldr	r2, [r5, #4]
 80023c4:	f423 7340 	bic.w	r3, r3, #768	; 0x300
 80023c8:	4313      	orrs	r3, r2
 80023ca:	6223      	str	r3, [r4, #32]
 80023cc:	b11f      	cbz	r7, 80023d6 <HAL_RCCEx_PeriphCLKConfig+0x4e>
 80023ce:	69e3      	ldr	r3, [r4, #28]
 80023d0:	f023 5380 	bic.w	r3, r3, #268435456	; 0x10000000
 80023d4:	61e3      	str	r3, [r4, #28]
 80023d6:	6828      	ldr	r0, [r5, #0]
 80023d8:	0783      	lsls	r3, r0, #30
 80023da:	d506      	bpl.n	80023ea <HAL_RCCEx_PeriphCLKConfig+0x62>
 80023dc:	4923      	ldr	r1, [pc, #140]	; (800246c <HAL_RCCEx_PeriphCLKConfig+0xe4>)
 80023de:	68ab      	ldr	r3, [r5, #8]
 80023e0:	684a      	ldr	r2, [r1, #4]
 80023e2:	f422 4240 	bic.w	r2, r2, #49152	; 0xc000
 80023e6:	431a      	orrs	r2, r3
 80023e8:	604a      	str	r2, [r1, #4]
 80023ea:	f010 0010 	ands.w	r0, r0, #16
 80023ee:	d01b      	beq.n	8002428 <HAL_RCCEx_PeriphCLKConfig+0xa0>
 80023f0:	4a1e      	ldr	r2, [pc, #120]	; (800246c <HAL_RCCEx_PeriphCLKConfig+0xe4>)
 80023f2:	68e9      	ldr	r1, [r5, #12]
 80023f4:	6853      	ldr	r3, [r2, #4]
 80023f6:	2000      	movs	r0, #0
 80023f8:	f423 0380 	bic.w	r3, r3, #4194304	; 0x400000
 80023fc:	430b      	orrs	r3, r1
 80023fe:	6053      	str	r3, [r2, #4]
 8002400:	e012      	b.n	8002428 <HAL_RCCEx_PeriphCLKConfig+0xa0>
 8002402:	2700      	movs	r7, #0
 8002404:	e7d4      	b.n	80023b0 <HAL_RCCEx_PeriphCLKConfig+0x28>
 8002406:	6833      	ldr	r3, [r6, #0]
 8002408:	f443 7380 	orr.w	r3, r3, #256	; 0x100
 800240c:	6033      	str	r3, [r6, #0]
 800240e:	f7ff f825 	bl	800145c <HAL_GetTick>
 8002412:	4680      	mov	r8, r0
 8002414:	6833      	ldr	r3, [r6, #0]
 8002416:	05d8      	lsls	r0, r3, #23
 8002418:	d4ce      	bmi.n	80023b8 <HAL_RCCEx_PeriphCLKConfig+0x30>
 800241a:	f7ff f81f 	bl	800145c <HAL_GetTick>
 800241e:	eba0 0008 	sub.w	r0, r0, r8
 8002422:	2864      	cmp	r0, #100	; 0x64
 8002424:	d9f6      	bls.n	8002414 <HAL_RCCEx_PeriphCLKConfig+0x8c>
 8002426:	2003      	movs	r0, #3
 8002428:	b002      	add	sp, #8
 800242a:	e8bd 81f0 	ldmia.w	sp!, {r4, r5, r6, r7, r8, pc}
 800242e:	686a      	ldr	r2, [r5, #4]
 8002430:	f402 7240 	and.w	r2, r2, #768	; 0x300
 8002434:	429a      	cmp	r2, r3
 8002436:	d0c3      	beq.n	80023c0 <HAL_RCCEx_PeriphCLKConfig+0x38>
 8002438:	2001      	movs	r0, #1
 800243a:	4a0e      	ldr	r2, [pc, #56]	; (8002474 <HAL_RCCEx_PeriphCLKConfig+0xec>)
 800243c:	6a23      	ldr	r3, [r4, #32]
 800243e:	6010      	str	r0, [r2, #0]
 8002440:	2000      	movs	r0, #0
 8002442:	f423 7140 	bic.w	r1, r3, #768	; 0x300
 8002446:	6010      	str	r0, [r2, #0]
 8002448:	6221      	str	r1, [r4, #32]
 800244a:	07d9      	lsls	r1, r3, #31
 800244c:	d5b8      	bpl.n	80023c0 <HAL_RCCEx_PeriphCLKConfig+0x38>
 800244e:	f7ff f805 	bl	800145c <HAL_GetTick>
 8002452:	f241 3888 	movw	r8, #5000	; 0x1388
 8002456:	4606      	mov	r6, r0
 8002458:	6a23      	ldr	r3, [r4, #32]
 800245a:	079a      	lsls	r2, r3, #30
 800245c:	d4b0      	bmi.n	80023c0 <HAL_RCCEx_PeriphCLKConfig+0x38>
 800245e:	f7fe fffd 	bl	800145c <HAL_GetTick>
 8002462:	1b80      	subs	r0, r0, r6
 8002464:	4540      	cmp	r0, r8
 8002466:	d9f7      	bls.n	8002458 <HAL_RCCEx_PeriphCLKConfig+0xd0>
 8002468:	e7dd      	b.n	8002426 <HAL_RCCEx_PeriphCLKConfig+0x9e>
 800246a:	bf00      	nop
 800246c:	40021000 	.word	0x40021000
 8002470:	40007000 	.word	0x40007000
 8002474:	42420440 	.word	0x42420440

08002478 <HAL_RCCEx_GetPeriphCLKFreq>:
 8002478:	4602      	mov	r2, r0
 800247a:	b570      	push	{r4, r5, r6, lr}
 800247c:	4b34      	ldr	r3, [pc, #208]	; (8002550 <HAL_RCCEx_GetPeriphCLKFreq+0xd8>)
 800247e:	b086      	sub	sp, #24
 8002480:	ad02      	add	r5, sp, #8
 8002482:	f103 0610 	add.w	r6, r3, #16
 8002486:	462c      	mov	r4, r5
 8002488:	6818      	ldr	r0, [r3, #0]
 800248a:	6859      	ldr	r1, [r3, #4]
 800248c:	3308      	adds	r3, #8
 800248e:	c403      	stmia	r4!, {r0, r1}
 8002490:	42b3      	cmp	r3, r6
 8002492:	4625      	mov	r5, r4
 8002494:	d1f7      	bne.n	8002486 <HAL_RCCEx_GetPeriphCLKFreq+0xe>
 8002496:	f240 2301 	movw	r3, #513	; 0x201
 800249a:	2a02      	cmp	r2, #2
 800249c:	f8ad 3004 	strh.w	r3, [sp, #4]
 80024a0:	d049      	beq.n	8002536 <HAL_RCCEx_GetPeriphCLKFreq+0xbe>
 80024a2:	2a10      	cmp	r2, #16
 80024a4:	d003      	beq.n	80024ae <HAL_RCCEx_GetPeriphCLKFreq+0x36>
 80024a6:	2a01      	cmp	r2, #1
 80024a8:	d026      	beq.n	80024f8 <HAL_RCCEx_GetPeriphCLKFreq+0x80>
 80024aa:	2000      	movs	r0, #0
 80024ac:	e038      	b.n	8002520 <HAL_RCCEx_GetPeriphCLKFreq+0xa8>
 80024ae:	4b29      	ldr	r3, [pc, #164]	; (8002554 <HAL_RCCEx_GetPeriphCLKFreq+0xdc>)
 80024b0:	6859      	ldr	r1, [r3, #4]
 80024b2:	6818      	ldr	r0, [r3, #0]
 80024b4:	f010 7080 	ands.w	r0, r0, #16777216	; 0x1000000
 80024b8:	d032      	beq.n	8002520 <HAL_RCCEx_GetPeriphCLKFreq+0xa8>
 80024ba:	f3c1 4283 	ubfx	r2, r1, #18, #4
 80024be:	a806      	add	r0, sp, #24
 80024c0:	4402      	add	r2, r0
 80024c2:	f812 0c10 	ldrb.w	r0, [r2, #-16]
 80024c6:	03ca      	lsls	r2, r1, #15
 80024c8:	bf41      	itttt	mi
 80024ca:	685a      	ldrmi	r2, [r3, #4]
 80024cc:	a906      	addmi	r1, sp, #24
 80024ce:	f3c2 4240 	ubfxmi	r2, r2, #17, #1
 80024d2:	1852      	addmi	r2, r2, r1
 80024d4:	bf44      	itt	mi
 80024d6:	f812 1c14 	ldrbmi.w	r1, [r2, #-20]
 80024da:	4a1f      	ldrmi	r2, [pc, #124]	; (8002558 <HAL_RCCEx_GetPeriphCLKFreq+0xe0>)
 80024dc:	685b      	ldr	r3, [r3, #4]
 80024de:	bf4c      	ite	mi
 80024e0:	fbb2 f2f1 	udivmi	r2, r2, r1
 80024e4:	4a1d      	ldrpl	r2, [pc, #116]	; (800255c <HAL_RCCEx_GetPeriphCLKFreq+0xe4>)
 80024e6:	025b      	lsls	r3, r3, #9
 80024e8:	fb02 f000 	mul.w	r0, r2, r0
 80024ec:	d418      	bmi.n	8002520 <HAL_RCCEx_GetPeriphCLKFreq+0xa8>
 80024ee:	2303      	movs	r3, #3
 80024f0:	0040      	lsls	r0, r0, #1
 80024f2:	fbb0 f0f3 	udiv	r0, r0, r3
 80024f6:	e013      	b.n	8002520 <HAL_RCCEx_GetPeriphCLKFreq+0xa8>
 80024f8:	f240 3102 	movw	r1, #770	; 0x302
 80024fc:	4a15      	ldr	r2, [pc, #84]	; (8002554 <HAL_RCCEx_GetPeriphCLKFreq+0xdc>)
 80024fe:	6a13      	ldr	r3, [r2, #32]
 8002500:	4019      	ands	r1, r3
 8002502:	f5b1 7f81 	cmp.w	r1, #258	; 0x102
 8002506:	d01f      	beq.n	8002548 <HAL_RCCEx_GetPeriphCLKFreq+0xd0>
 8002508:	f403 7340 	and.w	r3, r3, #768	; 0x300
 800250c:	f5b3 7f00 	cmp.w	r3, #512	; 0x200
 8002510:	d108      	bne.n	8002524 <HAL_RCCEx_GetPeriphCLKFreq+0xac>
 8002512:	f649 4340 	movw	r3, #40000	; 0x9c40
 8002516:	6a50      	ldr	r0, [r2, #36]	; 0x24
 8002518:	f010 0002 	ands.w	r0, r0, #2
 800251c:	bf18      	it	ne
 800251e:	4618      	movne	r0, r3
 8002520:	b006      	add	sp, #24
 8002522:	bd70      	pop	{r4, r5, r6, pc}
 8002524:	f5b3 7f40 	cmp.w	r3, #768	; 0x300
 8002528:	d1bf      	bne.n	80024aa <HAL_RCCEx_GetPeriphCLKFreq+0x32>
 800252a:	6810      	ldr	r0, [r2, #0]
 800252c:	f24f 4324 	movw	r3, #62500	; 0xf424
 8002530:	f410 3000 	ands.w	r0, r0, #131072	; 0x20000
 8002534:	e7f2      	b.n	800251c <HAL_RCCEx_GetPeriphCLKFreq+0xa4>
 8002536:	f7ff ff17 	bl	8002368 <HAL_RCC_GetPCLK2Freq>
 800253a:	4b06      	ldr	r3, [pc, #24]	; (8002554 <HAL_RCCEx_GetPeriphCLKFreq+0xdc>)
 800253c:	685b      	ldr	r3, [r3, #4]
 800253e:	f3c3 3381 	ubfx	r3, r3, #14, #2
 8002542:	3301      	adds	r3, #1
 8002544:	005b      	lsls	r3, r3, #1
 8002546:	e7d4      	b.n	80024f2 <HAL_RCCEx_GetPeriphCLKFreq+0x7a>
 8002548:	f44f 4000 	mov.w	r0, #32768	; 0x8000
 800254c:	e7e8      	b.n	8002520 <HAL_RCCEx_GetPeriphCLKFreq+0xa8>
 800254e:	bf00      	nop
 8002550:	080044b0 	.word	0x080044b0
 8002554:	40021000 	.word	0x40021000
 8002558:	007a1200 	.word	0x007a1200
 800255c:	003d0900 	.word	0x003d0900

08002560 <TIM_OC1_SetConfig>:
 8002560:	6a03      	ldr	r3, [r0, #32]
 8002562:	b570      	push	{r4, r5, r6, lr}
 8002564:	f023 0301 	bic.w	r3, r3, #1
 8002568:	6203      	str	r3, [r0, #32]
 800256a:	6a03      	ldr	r3, [r0, #32]
 800256c:	6844      	ldr	r4, [r0, #4]
 800256e:	6982      	ldr	r2, [r0, #24]
 8002570:	680d      	ldr	r5, [r1, #0]
 8002572:	f022 0273 	bic.w	r2, r2, #115	; 0x73
 8002576:	432a      	orrs	r2, r5
 8002578:	688d      	ldr	r5, [r1, #8]
 800257a:	f023 0302 	bic.w	r3, r3, #2
 800257e:	432b      	orrs	r3, r5
 8002580:	4d0a      	ldr	r5, [pc, #40]	; (80025ac <TIM_OC1_SetConfig+0x4c>)
 8002582:	42a8      	cmp	r0, r5
 8002584:	d10b      	bne.n	800259e <TIM_OC1_SetConfig+0x3e>
 8002586:	68cd      	ldr	r5, [r1, #12]
 8002588:	f023 0308 	bic.w	r3, r3, #8
 800258c:	432b      	orrs	r3, r5
 800258e:	f424 7440 	bic.w	r4, r4, #768	; 0x300
 8002592:	e9d1 5605 	ldrd	r5, r6, [r1, #20]
 8002596:	4335      	orrs	r5, r6
 8002598:	f023 0304 	bic.w	r3, r3, #4
 800259c:	432c      	orrs	r4, r5
 800259e:	6044      	str	r4, [r0, #4]
 80025a0:	6182      	str	r2, [r0, #24]
 80025a2:	684a      	ldr	r2, [r1, #4]
 80025a4:	6342      	str	r2, [r0, #52]	; 0x34
 80025a6:	6203      	str	r3, [r0, #32]
 80025a8:	bd70      	pop	{r4, r5, r6, pc}
 80025aa:	bf00      	nop
 80025ac:	40012c00 	.word	0x40012c00

080025b0 <TIM_OC3_SetConfig>:
 80025b0:	6a03      	ldr	r3, [r0, #32]
 80025b2:	b570      	push	{r4, r5, r6, lr}
 80025b4:	f423 7380 	bic.w	r3, r3, #256	; 0x100
 80025b8:	6203      	str	r3, [r0, #32]
 80025ba:	6a03      	ldr	r3, [r0, #32]
 80025bc:	6844      	ldr	r4, [r0, #4]
 80025be:	69c2      	ldr	r2, [r0, #28]
 80025c0:	680d      	ldr	r5, [r1, #0]
 80025c2:	f022 0273 	bic.w	r2, r2, #115	; 0x73
 80025c6:	432a      	orrs	r2, r5
 80025c8:	688d      	ldr	r5, [r1, #8]
 80025ca:	f423 7300 	bic.w	r3, r3, #512	; 0x200
 80025ce:	ea43 2305 	orr.w	r3, r3, r5, lsl #8
 80025d2:	4d0b      	ldr	r5, [pc, #44]	; (8002600 <TIM_OC3_SetConfig+0x50>)
 80025d4:	42a8      	cmp	r0, r5
 80025d6:	d10d      	bne.n	80025f4 <TIM_OC3_SetConfig+0x44>
 80025d8:	68cd      	ldr	r5, [r1, #12]
 80025da:	f423 6300 	bic.w	r3, r3, #2048	; 0x800
 80025de:	ea43 2305 	orr.w	r3, r3, r5, lsl #8
 80025e2:	f424 5440 	bic.w	r4, r4, #12288	; 0x3000
 80025e6:	e9d1 5605 	ldrd	r5, r6, [r1, #20]
 80025ea:	4335      	orrs	r5, r6
 80025ec:	f423 6380 	bic.w	r3, r3, #1024	; 0x400
 80025f0:	ea44 1405 	orr.w	r4, r4, r5, lsl #4
 80025f4:	6044      	str	r4, [r0, #4]
 80025f6:	61c2      	str	r2, [r0, #28]
 80025f8:	684a      	ldr	r2, [r1, #4]
 80025fa:	63c2      	str	r2, [r0, #60]	; 0x3c
 80025fc:	6203      	str	r3, [r0, #32]
 80025fe:	bd70      	pop	{r4, r5, r6, pc}
 8002600:	40012c00 	.word	0x40012c00

08002604 <TIM_OC4_SetConfig>:
 8002604:	6a03      	ldr	r3, [r0, #32]
 8002606:	b530      	push	{r4, r5, lr}
 8002608:	f423 5380 	bic.w	r3, r3, #4096	; 0x1000
 800260c:	6203      	str	r3, [r0, #32]
 800260e:	6a03      	ldr	r3, [r0, #32]
 8002610:	6844      	ldr	r4, [r0, #4]
 8002612:	69c2      	ldr	r2, [r0, #28]
 8002614:	680d      	ldr	r5, [r1, #0]
 8002616:	f422 42e6 	bic.w	r2, r2, #29440	; 0x7300
 800261a:	ea42 2205 	orr.w	r2, r2, r5, lsl #8
 800261e:	688d      	ldr	r5, [r1, #8]
 8002620:	f423 5300 	bic.w	r3, r3, #8192	; 0x2000
 8002624:	ea43 3305 	orr.w	r3, r3, r5, lsl #12
 8002628:	4d06      	ldr	r5, [pc, #24]	; (8002644 <TIM_OC4_SetConfig+0x40>)
 800262a:	42a8      	cmp	r0, r5
 800262c:	bf02      	ittt	eq
 800262e:	694d      	ldreq	r5, [r1, #20]
 8002630:	f424 4480 	biceq.w	r4, r4, #16384	; 0x4000
 8002634:	ea44 1485 	orreq.w	r4, r4, r5, lsl #6
 8002638:	6044      	str	r4, [r0, #4]
 800263a:	61c2      	str	r2, [r0, #28]
 800263c:	684a      	ldr	r2, [r1, #4]
 800263e:	6402      	str	r2, [r0, #64]	; 0x40
 8002640:	6203      	str	r3, [r0, #32]
 8002642:	bd30      	pop	{r4, r5, pc}
 8002644:	40012c00 	.word	0x40012c00

08002648 <HAL_TIM_Base_Start>:
 8002648:	f890 303d 	ldrb.w	r3, [r0, #61]	; 0x3d
 800264c:	2b01      	cmp	r3, #1
 800264e:	d11c      	bne.n	800268a <HAL_TIM_Base_Start+0x42>
 8002650:	2302      	movs	r3, #2
 8002652:	4a0f      	ldr	r2, [pc, #60]	; (8002690 <HAL_TIM_Base_Start+0x48>)
 8002654:	f880 303d 	strb.w	r3, [r0, #61]	; 0x3d
 8002658:	6803      	ldr	r3, [r0, #0]
 800265a:	4293      	cmp	r3, r2
 800265c:	d00a      	beq.n	8002674 <HAL_TIM_Base_Start+0x2c>
 800265e:	f1b3 4f80 	cmp.w	r3, #1073741824	; 0x40000000
 8002662:	d007      	beq.n	8002674 <HAL_TIM_Base_Start+0x2c>
 8002664:	f5a2 3294 	sub.w	r2, r2, #75776	; 0x12800
 8002668:	4293      	cmp	r3, r2
 800266a:	d003      	beq.n	8002674 <HAL_TIM_Base_Start+0x2c>
 800266c:	f502 6280 	add.w	r2, r2, #1024	; 0x400
 8002670:	4293      	cmp	r3, r2
 8002672:	d104      	bne.n	800267e <HAL_TIM_Base_Start+0x36>
 8002674:	689a      	ldr	r2, [r3, #8]
 8002676:	f002 0207 	and.w	r2, r2, #7
 800267a:	2a06      	cmp	r2, #6
 800267c:	d003      	beq.n	8002686 <HAL_TIM_Base_Start+0x3e>
 800267e:	681a      	ldr	r2, [r3, #0]
 8002680:	f042 0201 	orr.w	r2, r2, #1
 8002684:	601a      	str	r2, [r3, #0]
 8002686:	2000      	movs	r0, #0
 8002688:	4770      	bx	lr
 800268a:	2001      	movs	r0, #1
 800268c:	4770      	bx	lr
 800268e:	bf00      	nop
 8002690:	40012c00 	.word	0x40012c00

08002694 <HAL_TIM_PWM_MspInit>:
 8002694:	4770      	bx	lr

08002696 <HAL_TIM_PeriodElapsedCallback>:
 8002696:	4770      	bx	lr

08002698 <HAL_TIM_OC_DelayElapsedCallback>:
 8002698:	4770      	bx	lr

0800269a <HAL_TIM_IC_CaptureCallback>:
 800269a:	4770      	bx	lr

0800269c <HAL_TIM_PWM_PulseFinishedCallback>:
 800269c:	4770      	bx	lr

0800269e <HAL_TIM_TriggerCallback>:
 800269e:	4770      	bx	lr

080026a0 <HAL_TIM_IRQHandler>:
 80026a0:	6803      	ldr	r3, [r0, #0]
 80026a2:	b510      	push	{r4, lr}
 80026a4:	691a      	ldr	r2, [r3, #16]
 80026a6:	4604      	mov	r4, r0
 80026a8:	0791      	lsls	r1, r2, #30
 80026aa:	d50e      	bpl.n	80026ca <HAL_TIM_IRQHandler+0x2a>
 80026ac:	68da      	ldr	r2, [r3, #12]
 80026ae:	0792      	lsls	r2, r2, #30
 80026b0:	d50b      	bpl.n	80026ca <HAL_TIM_IRQHandler+0x2a>
 80026b2:	f06f 0202 	mvn.w	r2, #2
 80026b6:	611a      	str	r2, [r3, #16]
 80026b8:	2201      	movs	r2, #1
 80026ba:	7702      	strb	r2, [r0, #28]
 80026bc:	699b      	ldr	r3, [r3, #24]
 80026be:	079b      	lsls	r3, r3, #30
 80026c0:	d077      	beq.n	80027b2 <HAL_TIM_IRQHandler+0x112>
 80026c2:	f7ff ffea 	bl	800269a <HAL_TIM_IC_CaptureCallback>
 80026c6:	2300      	movs	r3, #0
 80026c8:	7723      	strb	r3, [r4, #28]
 80026ca:	6823      	ldr	r3, [r4, #0]
 80026cc:	691a      	ldr	r2, [r3, #16]
 80026ce:	0750      	lsls	r0, r2, #29
 80026d0:	d510      	bpl.n	80026f4 <HAL_TIM_IRQHandler+0x54>
 80026d2:	68da      	ldr	r2, [r3, #12]
 80026d4:	0751      	lsls	r1, r2, #29
 80026d6:	d50d      	bpl.n	80026f4 <HAL_TIM_IRQHandler+0x54>
 80026d8:	f06f 0204 	mvn.w	r2, #4
 80026dc:	611a      	str	r2, [r3, #16]
 80026de:	2202      	movs	r2, #2
 80026e0:	7722      	strb	r2, [r4, #28]
 80026e2:	699b      	ldr	r3, [r3, #24]
 80026e4:	4620      	mov	r0, r4
 80026e6:	f413 7f40 	tst.w	r3, #768	; 0x300
 80026ea:	d068      	beq.n	80027be <HAL_TIM_IRQHandler+0x11e>
 80026ec:	f7ff ffd5 	bl	800269a <HAL_TIM_IC_CaptureCallback>
 80026f0:	2300      	movs	r3, #0
 80026f2:	7723      	strb	r3, [r4, #28]
 80026f4:	6823      	ldr	r3, [r4, #0]
 80026f6:	691a      	ldr	r2, [r3, #16]
 80026f8:	0712      	lsls	r2, r2, #28
 80026fa:	d50f      	bpl.n	800271c <HAL_TIM_IRQHandler+0x7c>
 80026fc:	68da      	ldr	r2, [r3, #12]
 80026fe:	0710      	lsls	r0, r2, #28
 8002700:	d50c      	bpl.n	800271c <HAL_TIM_IRQHandler+0x7c>
 8002702:	f06f 0208 	mvn.w	r2, #8
 8002706:	611a      	str	r2, [r3, #16]
 8002708:	2204      	movs	r2, #4
 800270a:	7722      	strb	r2, [r4, #28]
 800270c:	69db      	ldr	r3, [r3, #28]
 800270e:	4620      	mov	r0, r4
 8002710:	0799      	lsls	r1, r3, #30
 8002712:	d05a      	beq.n	80027ca <HAL_TIM_IRQHandler+0x12a>
 8002714:	f7ff ffc1 	bl	800269a <HAL_TIM_IC_CaptureCallback>
 8002718:	2300      	movs	r3, #0
 800271a:	7723      	strb	r3, [r4, #28]
 800271c:	6823      	ldr	r3, [r4, #0]
 800271e:	691a      	ldr	r2, [r3, #16]
 8002720:	06d2      	lsls	r2, r2, #27
 8002722:	d510      	bpl.n	8002746 <HAL_TIM_IRQHandler+0xa6>
 8002724:	68da      	ldr	r2, [r3, #12]
 8002726:	06d0      	lsls	r0, r2, #27
 8002728:	d50d      	bpl.n	8002746 <HAL_TIM_IRQHandler+0xa6>
 800272a:	f06f 0210 	mvn.w	r2, #16
 800272e:	611a      	str	r2, [r3, #16]
 8002730:	2208      	movs	r2, #8
 8002732:	7722      	strb	r2, [r4, #28]
 8002734:	69db      	ldr	r3, [r3, #28]
 8002736:	4620      	mov	r0, r4
 8002738:	f413 7f40 	tst.w	r3, #768	; 0x300
 800273c:	d04b      	beq.n	80027d6 <HAL_TIM_IRQHandler+0x136>
 800273e:	f7ff ffac 	bl	800269a <HAL_TIM_IC_CaptureCallback>
 8002742:	2300      	movs	r3, #0
 8002744:	7723      	strb	r3, [r4, #28]
 8002746:	6823      	ldr	r3, [r4, #0]
 8002748:	691a      	ldr	r2, [r3, #16]
 800274a:	07d1      	lsls	r1, r2, #31
 800274c:	d508      	bpl.n	8002760 <HAL_TIM_IRQHandler+0xc0>
 800274e:	68da      	ldr	r2, [r3, #12]
 8002750:	07d2      	lsls	r2, r2, #31
 8002752:	d505      	bpl.n	8002760 <HAL_TIM_IRQHandler+0xc0>
 8002754:	f06f 0201 	mvn.w	r2, #1
 8002758:	4620      	mov	r0, r4
 800275a:	611a      	str	r2, [r3, #16]
 800275c:	f7ff ff9b 	bl	8002696 <HAL_TIM_PeriodElapsedCallback>
 8002760:	6823      	ldr	r3, [r4, #0]
 8002762:	691a      	ldr	r2, [r3, #16]
 8002764:	0610      	lsls	r0, r2, #24
 8002766:	d508      	bpl.n	800277a <HAL_TIM_IRQHandler+0xda>
 8002768:	68da      	ldr	r2, [r3, #12]
 800276a:	0611      	lsls	r1, r2, #24
 800276c:	d505      	bpl.n	800277a <HAL_TIM_IRQHandler+0xda>
 800276e:	f06f 0280 	mvn.w	r2, #128	; 0x80
 8002772:	4620      	mov	r0, r4
 8002774:	611a      	str	r2, [r3, #16]
 8002776:	f000 fa8c 	bl	8002c92 <HAL_TIMEx_BreakCallback>
 800277a:	6823      	ldr	r3, [r4, #0]
 800277c:	691a      	ldr	r2, [r3, #16]
 800277e:	0652      	lsls	r2, r2, #25
 8002780:	d508      	bpl.n	8002794 <HAL_TIM_IRQHandler+0xf4>
 8002782:	68da      	ldr	r2, [r3, #12]
 8002784:	0650      	lsls	r0, r2, #25
 8002786:	d505      	bpl.n	8002794 <HAL_TIM_IRQHandler+0xf4>
 8002788:	f06f 0240 	mvn.w	r2, #64	; 0x40
 800278c:	4620      	mov	r0, r4
 800278e:	611a      	str	r2, [r3, #16]
 8002790:	f7ff ff85 	bl	800269e <HAL_TIM_TriggerCallback>
 8002794:	6823      	ldr	r3, [r4, #0]
 8002796:	691a      	ldr	r2, [r3, #16]
 8002798:	0691      	lsls	r1, r2, #26
 800279a:	d522      	bpl.n	80027e2 <HAL_TIM_IRQHandler+0x142>
 800279c:	68da      	ldr	r2, [r3, #12]
 800279e:	0692      	lsls	r2, r2, #26
 80027a0:	d51f      	bpl.n	80027e2 <HAL_TIM_IRQHandler+0x142>
 80027a2:	f06f 0220 	mvn.w	r2, #32
 80027a6:	4620      	mov	r0, r4
 80027a8:	e8bd 4010 	ldmia.w	sp!, {r4, lr}
 80027ac:	611a      	str	r2, [r3, #16]
 80027ae:	f000 ba6f 	b.w	8002c90 <HAL_TIMEx_CommutCallback>
 80027b2:	f7ff ff71 	bl	8002698 <HAL_TIM_OC_DelayElapsedCallback>
 80027b6:	4620      	mov	r0, r4
 80027b8:	f7ff ff70 	bl	800269c <HAL_TIM_PWM_PulseFinishedCallback>
 80027bc:	e783      	b.n	80026c6 <HAL_TIM_IRQHandler+0x26>
 80027be:	f7ff ff6b 	bl	8002698 <HAL_TIM_OC_DelayElapsedCallback>
 80027c2:	4620      	mov	r0, r4
 80027c4:	f7ff ff6a 	bl	800269c <HAL_TIM_PWM_PulseFinishedCallback>
 80027c8:	e792      	b.n	80026f0 <HAL_TIM_IRQHandler+0x50>
 80027ca:	f7ff ff65 	bl	8002698 <HAL_TIM_OC_DelayElapsedCallback>
 80027ce:	4620      	mov	r0, r4
 80027d0:	f7ff ff64 	bl	800269c <HAL_TIM_PWM_PulseFinishedCallback>
 80027d4:	e7a0      	b.n	8002718 <HAL_TIM_IRQHandler+0x78>
 80027d6:	f7ff ff5f 	bl	8002698 <HAL_TIM_OC_DelayElapsedCallback>
 80027da:	4620      	mov	r0, r4
 80027dc:	f7ff ff5e 	bl	800269c <HAL_TIM_PWM_PulseFinishedCallback>
 80027e0:	e7af      	b.n	8002742 <HAL_TIM_IRQHandler+0xa2>
 80027e2:	bd10      	pop	{r4, pc}

080027e4 <TIM_Base_SetConfig>:
 80027e4:	4a1a      	ldr	r2, [pc, #104]	; (8002850 <TIM_Base_SetConfig+0x6c>)
 80027e6:	6803      	ldr	r3, [r0, #0]
 80027e8:	4290      	cmp	r0, r2
 80027ea:	d00a      	beq.n	8002802 <TIM_Base_SetConfig+0x1e>
 80027ec:	f1b0 4f80 	cmp.w	r0, #1073741824	; 0x40000000
 80027f0:	d007      	beq.n	8002802 <TIM_Base_SetConfig+0x1e>
 80027f2:	f5a2 3294 	sub.w	r2, r2, #75776	; 0x12800
 80027f6:	4290      	cmp	r0, r2
 80027f8:	d003      	beq.n	8002802 <TIM_Base_SetConfig+0x1e>
 80027fa:	f502 6280 	add.w	r2, r2, #1024	; 0x400
 80027fe:	4290      	cmp	r0, r2
 8002800:	d115      	bne.n	800282e <TIM_Base_SetConfig+0x4a>
 8002802:	684a      	ldr	r2, [r1, #4]
 8002804:	f023 0370 	bic.w	r3, r3, #112	; 0x70
 8002808:	4313      	orrs	r3, r2
 800280a:	4a11      	ldr	r2, [pc, #68]	; (8002850 <TIM_Base_SetConfig+0x6c>)
 800280c:	4290      	cmp	r0, r2
 800280e:	d00a      	beq.n	8002826 <TIM_Base_SetConfig+0x42>
 8002810:	f1b0 4f80 	cmp.w	r0, #1073741824	; 0x40000000
 8002814:	d007      	beq.n	8002826 <TIM_Base_SetConfig+0x42>
 8002816:	f5a2 3294 	sub.w	r2, r2, #75776	; 0x12800
 800281a:	4290      	cmp	r0, r2
 800281c:	d003      	beq.n	8002826 <TIM_Base_SetConfig+0x42>
 800281e:	f502 6280 	add.w	r2, r2, #1024	; 0x400
 8002822:	4290      	cmp	r0, r2
 8002824:	d103      	bne.n	800282e <TIM_Base_SetConfig+0x4a>
 8002826:	68ca      	ldr	r2, [r1, #12]
 8002828:	f423 7340 	bic.w	r3, r3, #768	; 0x300
 800282c:	4313      	orrs	r3, r2
 800282e:	694a      	ldr	r2, [r1, #20]
 8002830:	f023 0380 	bic.w	r3, r3, #128	; 0x80
 8002834:	4313      	orrs	r3, r2
 8002836:	6003      	str	r3, [r0, #0]
 8002838:	688b      	ldr	r3, [r1, #8]
 800283a:	62c3      	str	r3, [r0, #44]	; 0x2c
 800283c:	680b      	ldr	r3, [r1, #0]
 800283e:	6283      	str	r3, [r0, #40]	; 0x28
 8002840:	4b03      	ldr	r3, [pc, #12]	; (8002850 <TIM_Base_SetConfig+0x6c>)
 8002842:	4298      	cmp	r0, r3
 8002844:	bf04      	itt	eq
 8002846:	690b      	ldreq	r3, [r1, #16]
 8002848:	6303      	streq	r3, [r0, #48]	; 0x30
 800284a:	2301      	movs	r3, #1
 800284c:	6143      	str	r3, [r0, #20]
 800284e:	4770      	bx	lr
 8002850:	40012c00 	.word	0x40012c00

08002854 <HAL_TIM_Base_Init>:
 8002854:	b510      	push	{r4, lr}
 8002856:	4604      	mov	r4, r0
 8002858:	b330      	cbz	r0, 80028a8 <HAL_TIM_Base_Init+0x54>
 800285a:	f890 303d 	ldrb.w	r3, [r0, #61]	; 0x3d
 800285e:	f003 02ff 	and.w	r2, r3, #255	; 0xff
 8002862:	b91b      	cbnz	r3, 800286c <HAL_TIM_Base_Init+0x18>
 8002864:	f880 203c 	strb.w	r2, [r0, #60]	; 0x3c
 8002868:	f7fe fcb6 	bl	80011d8 <HAL_TIM_Base_MspInit>
 800286c:	2302      	movs	r3, #2
 800286e:	6820      	ldr	r0, [r4, #0]
 8002870:	f884 303d 	strb.w	r3, [r4, #61]	; 0x3d
 8002874:	1d21      	adds	r1, r4, #4
 8002876:	f7ff ffb5 	bl	80027e4 <TIM_Base_SetConfig>
 800287a:	2301      	movs	r3, #1
 800287c:	2000      	movs	r0, #0
 800287e:	f884 3046 	strb.w	r3, [r4, #70]	; 0x46
 8002882:	f884 303e 	strb.w	r3, [r4, #62]	; 0x3e
 8002886:	f884 303f 	strb.w	r3, [r4, #63]	; 0x3f
 800288a:	f884 3040 	strb.w	r3, [r4, #64]	; 0x40
 800288e:	f884 3041 	strb.w	r3, [r4, #65]	; 0x41
 8002892:	f884 3042 	strb.w	r3, [r4, #66]	; 0x42
 8002896:	f884 3043 	strb.w	r3, [r4, #67]	; 0x43
 800289a:	f884 3044 	strb.w	r3, [r4, #68]	; 0x44
 800289e:	f884 3045 	strb.w	r3, [r4, #69]	; 0x45
 80028a2:	f884 303d 	strb.w	r3, [r4, #61]	; 0x3d
 80028a6:	bd10      	pop	{r4, pc}
 80028a8:	2001      	movs	r0, #1
 80028aa:	e7fc      	b.n	80028a6 <HAL_TIM_Base_Init+0x52>

080028ac <HAL_TIM_PWM_Init>:
 80028ac:	b510      	push	{r4, lr}
 80028ae:	4604      	mov	r4, r0
 80028b0:	b330      	cbz	r0, 8002900 <HAL_TIM_PWM_Init+0x54>
 80028b2:	f890 303d 	ldrb.w	r3, [r0, #61]	; 0x3d
 80028b6:	f003 02ff 	and.w	r2, r3, #255	; 0xff
 80028ba:	b91b      	cbnz	r3, 80028c4 <HAL_TIM_PWM_Init+0x18>
 80028bc:	f880 203c 	strb.w	r2, [r0, #60]	; 0x3c
 80028c0:	f7ff fee8 	bl	8002694 <HAL_TIM_PWM_MspInit>
 80028c4:	2302      	movs	r3, #2
 80028c6:	6820      	ldr	r0, [r4, #0]
 80028c8:	f884 303d 	strb.w	r3, [r4, #61]	; 0x3d
 80028cc:	1d21      	adds	r1, r4, #4
 80028ce:	f7ff ff89 	bl	80027e4 <TIM_Base_SetConfig>
 80028d2:	2301      	movs	r3, #1
 80028d4:	2000      	movs	r0, #0
 80028d6:	f884 3046 	strb.w	r3, [r4, #70]	; 0x46
 80028da:	f884 303e 	strb.w	r3, [r4, #62]	; 0x3e
 80028de:	f884 303f 	strb.w	r3, [r4, #63]	; 0x3f
 80028e2:	f884 3040 	strb.w	r3, [r4, #64]	; 0x40
 80028e6:	f884 3041 	strb.w	r3, [r4, #65]	; 0x41
 80028ea:	f884 3042 	strb.w	r3, [r4, #66]	; 0x42
 80028ee:	f884 3043 	strb.w	r3, [r4, #67]	; 0x43
 80028f2:	f884 3044 	strb.w	r3, [r4, #68]	; 0x44
 80028f6:	f884 3045 	strb.w	r3, [r4, #69]	; 0x45
 80028fa:	f884 303d 	strb.w	r3, [r4, #61]	; 0x3d
 80028fe:	bd10      	pop	{r4, pc}
 8002900:	2001      	movs	r0, #1
 8002902:	e7fc      	b.n	80028fe <HAL_TIM_PWM_Init+0x52>

08002904 <TIM_OC2_SetConfig>:
 8002904:	6a03      	ldr	r3, [r0, #32]
 8002906:	b570      	push	{r4, r5, r6, lr}
 8002908:	f023 0310 	bic.w	r3, r3, #16
 800290c:	6203      	str	r3, [r0, #32]
 800290e:	6a03      	ldr	r3, [r0, #32]
 8002910:	6844      	ldr	r4, [r0, #4]
 8002912:	6982      	ldr	r2, [r0, #24]
 8002914:	680d      	ldr	r5, [r1, #0]
 8002916:	f422 42e6 	bic.w	r2, r2, #29440	; 0x7300
 800291a:	ea42 2205 	orr.w	r2, r2, r5, lsl #8
 800291e:	688d      	ldr	r5, [r1, #8]
 8002920:	f023 0320 	bic.w	r3, r3, #32
 8002924:	ea43 1305 	orr.w	r3, r3, r5, lsl #4
 8002928:	4d0b      	ldr	r5, [pc, #44]	; (8002958 <TIM_OC2_SetConfig+0x54>)
 800292a:	42a8      	cmp	r0, r5
 800292c:	d10d      	bne.n	800294a <TIM_OC2_SetConfig+0x46>
 800292e:	68cd      	ldr	r5, [r1, #12]
 8002930:	f023 0380 	bic.w	r3, r3, #128	; 0x80
 8002934:	ea43 1305 	orr.w	r3, r3, r5, lsl #4
 8002938:	f424 6440 	bic.w	r4, r4, #3072	; 0xc00
 800293c:	e9d1 5605 	ldrd	r5, r6, [r1, #20]
 8002940:	4335      	orrs	r5, r6
 8002942:	f023 0340 	bic.w	r3, r3, #64	; 0x40
 8002946:	ea44 0485 	orr.w	r4, r4, r5, lsl #2
 800294a:	6044      	str	r4, [r0, #4]
 800294c:	6182      	str	r2, [r0, #24]
 800294e:	684a      	ldr	r2, [r1, #4]
 8002950:	6382      	str	r2, [r0, #56]	; 0x38
 8002952:	6203      	str	r3, [r0, #32]
 8002954:	bd70      	pop	{r4, r5, r6, pc}
 8002956:	bf00      	nop
 8002958:	40012c00 	.word	0x40012c00

0800295c <HAL_TIM_PWM_ConfigChannel>:
 800295c:	b538      	push	{r3, r4, r5, lr}
 800295e:	f890 303c 	ldrb.w	r3, [r0, #60]	; 0x3c
 8002962:	4604      	mov	r4, r0
 8002964:	2b01      	cmp	r3, #1
 8002966:	d052      	beq.n	8002a0e <HAL_TIM_PWM_ConfigChannel+0xb2>
 8002968:	2301      	movs	r3, #1
 800296a:	2a08      	cmp	r2, #8
 800296c:	f880 303c 	strb.w	r3, [r0, #60]	; 0x3c
 8002970:	d03c      	beq.n	80029ec <HAL_TIM_PWM_ConfigChannel+0x90>
 8002972:	d806      	bhi.n	8002982 <HAL_TIM_PWM_ConfigChannel+0x26>
 8002974:	b1c2      	cbz	r2, 80029a8 <HAL_TIM_PWM_ConfigChannel+0x4c>
 8002976:	2a04      	cmp	r2, #4
 8002978:	d027      	beq.n	80029ca <HAL_TIM_PWM_ConfigChannel+0x6e>
 800297a:	2000      	movs	r0, #0
 800297c:	f884 003c 	strb.w	r0, [r4, #60]	; 0x3c
 8002980:	bd38      	pop	{r3, r4, r5, pc}
 8002982:	2a0c      	cmp	r2, #12
 8002984:	d1f9      	bne.n	800297a <HAL_TIM_PWM_ConfigChannel+0x1e>
 8002986:	6800      	ldr	r0, [r0, #0]
 8002988:	f7ff fe3c 	bl	8002604 <TIM_OC4_SetConfig>
 800298c:	6823      	ldr	r3, [r4, #0]
 800298e:	6909      	ldr	r1, [r1, #16]
 8002990:	69da      	ldr	r2, [r3, #28]
 8002992:	f442 6200 	orr.w	r2, r2, #2048	; 0x800
 8002996:	61da      	str	r2, [r3, #28]
 8002998:	69da      	ldr	r2, [r3, #28]
 800299a:	f422 6280 	bic.w	r2, r2, #1024	; 0x400
 800299e:	61da      	str	r2, [r3, #28]
 80029a0:	69da      	ldr	r2, [r3, #28]
 80029a2:	ea42 2201 	orr.w	r2, r2, r1, lsl #8
 80029a6:	e030      	b.n	8002a0a <HAL_TIM_PWM_ConfigChannel+0xae>
 80029a8:	6800      	ldr	r0, [r0, #0]
 80029aa:	f7ff fdd9 	bl	8002560 <TIM_OC1_SetConfig>
 80029ae:	6823      	ldr	r3, [r4, #0]
 80029b0:	6909      	ldr	r1, [r1, #16]
 80029b2:	699a      	ldr	r2, [r3, #24]
 80029b4:	f042 0208 	orr.w	r2, r2, #8
 80029b8:	619a      	str	r2, [r3, #24]
 80029ba:	699a      	ldr	r2, [r3, #24]
 80029bc:	f022 0204 	bic.w	r2, r2, #4
 80029c0:	619a      	str	r2, [r3, #24]
 80029c2:	699a      	ldr	r2, [r3, #24]
 80029c4:	430a      	orrs	r2, r1
 80029c6:	619a      	str	r2, [r3, #24]
 80029c8:	e7d7      	b.n	800297a <HAL_TIM_PWM_ConfigChannel+0x1e>
 80029ca:	6800      	ldr	r0, [r0, #0]
 80029cc:	f7ff ff9a 	bl	8002904 <TIM_OC2_SetConfig>
 80029d0:	6823      	ldr	r3, [r4, #0]
 80029d2:	6909      	ldr	r1, [r1, #16]
 80029d4:	699a      	ldr	r2, [r3, #24]
 80029d6:	f442 6200 	orr.w	r2, r2, #2048	; 0x800
 80029da:	619a      	str	r2, [r3, #24]
 80029dc:	699a      	ldr	r2, [r3, #24]
 80029de:	f422 6280 	bic.w	r2, r2, #1024	; 0x400
 80029e2:	619a      	str	r2, [r3, #24]
 80029e4:	699a      	ldr	r2, [r3, #24]
 80029e6:	ea42 2201 	orr.w	r2, r2, r1, lsl #8
 80029ea:	e7ec      	b.n	80029c6 <HAL_TIM_PWM_ConfigChannel+0x6a>
 80029ec:	6800      	ldr	r0, [r0, #0]
 80029ee:	f7ff fddf 	bl	80025b0 <TIM_OC3_SetConfig>
 80029f2:	6823      	ldr	r3, [r4, #0]
 80029f4:	6909      	ldr	r1, [r1, #16]
 80029f6:	69da      	ldr	r2, [r3, #28]
 80029f8:	f042 0208 	orr.w	r2, r2, #8
 80029fc:	61da      	str	r2, [r3, #28]
 80029fe:	69da      	ldr	r2, [r3, #28]
 8002a00:	f022 0204 	bic.w	r2, r2, #4
 8002a04:	61da      	str	r2, [r3, #28]
 8002a06:	69da      	ldr	r2, [r3, #28]
 8002a08:	430a      	orrs	r2, r1
 8002a0a:	61da      	str	r2, [r3, #28]
 8002a0c:	e7b5      	b.n	800297a <HAL_TIM_PWM_ConfigChannel+0x1e>
 8002a0e:	2002      	movs	r0, #2
 8002a10:	e7b6      	b.n	8002980 <HAL_TIM_PWM_ConfigChannel+0x24>

08002a12 <TIM_ETR_SetConfig>:
 8002a12:	b510      	push	{r4, lr}
 8002a14:	6884      	ldr	r4, [r0, #8]
 8002a16:	430a      	orrs	r2, r1
 8002a18:	f424 447f 	bic.w	r4, r4, #65280	; 0xff00
 8002a1c:	ea42 2203 	orr.w	r2, r2, r3, lsl #8
 8002a20:	4322      	orrs	r2, r4
 8002a22:	6082      	str	r2, [r0, #8]
 8002a24:	bd10      	pop	{r4, pc}

08002a26 <HAL_TIM_ConfigClockSource>:
 8002a26:	b570      	push	{r4, r5, r6, lr}
 8002a28:	f890 303c 	ldrb.w	r3, [r0, #60]	; 0x3c
 8002a2c:	4604      	mov	r4, r0
 8002a2e:	2b01      	cmp	r3, #1
 8002a30:	f04f 0002 	mov.w	r0, #2
 8002a34:	d027      	beq.n	8002a86 <HAL_TIM_ConfigClockSource+0x60>
 8002a36:	2301      	movs	r3, #1
 8002a38:	f884 003d 	strb.w	r0, [r4, #61]	; 0x3d
 8002a3c:	6820      	ldr	r0, [r4, #0]
 8002a3e:	f884 303c 	strb.w	r3, [r4, #60]	; 0x3c
 8002a42:	6883      	ldr	r3, [r0, #8]
 8002a44:	f423 437f 	bic.w	r3, r3, #65280	; 0xff00
 8002a48:	f023 0377 	bic.w	r3, r3, #119	; 0x77
 8002a4c:	6083      	str	r3, [r0, #8]
 8002a4e:	680b      	ldr	r3, [r1, #0]
 8002a50:	2b60      	cmp	r3, #96	; 0x60
 8002a52:	d04d      	beq.n	8002af0 <HAL_TIM_ConfigClockSource+0xca>
 8002a54:	d832      	bhi.n	8002abc <HAL_TIM_ConfigClockSource+0x96>
 8002a56:	2b40      	cmp	r3, #64	; 0x40
 8002a58:	d062      	beq.n	8002b20 <HAL_TIM_ConfigClockSource+0xfa>
 8002a5a:	d815      	bhi.n	8002a88 <HAL_TIM_ConfigClockSource+0x62>
 8002a5c:	2b20      	cmp	r3, #32
 8002a5e:	d003      	beq.n	8002a68 <HAL_TIM_ConfigClockSource+0x42>
 8002a60:	d809      	bhi.n	8002a76 <HAL_TIM_ConfigClockSource+0x50>
 8002a62:	f033 0210 	bics.w	r2, r3, #16
 8002a66:	d108      	bne.n	8002a7a <HAL_TIM_ConfigClockSource+0x54>
 8002a68:	6882      	ldr	r2, [r0, #8]
 8002a6a:	f022 0270 	bic.w	r2, r2, #112	; 0x70
 8002a6e:	4313      	orrs	r3, r2
 8002a70:	f043 0307 	orr.w	r3, r3, #7
 8002a74:	e020      	b.n	8002ab8 <HAL_TIM_ConfigClockSource+0x92>
 8002a76:	2b30      	cmp	r3, #48	; 0x30
 8002a78:	d0f6      	beq.n	8002a68 <HAL_TIM_ConfigClockSource+0x42>
 8002a7a:	2301      	movs	r3, #1
 8002a7c:	2000      	movs	r0, #0
 8002a7e:	f884 303d 	strb.w	r3, [r4, #61]	; 0x3d
 8002a82:	f884 003c 	strb.w	r0, [r4, #60]	; 0x3c
 8002a86:	bd70      	pop	{r4, r5, r6, pc}
 8002a88:	2b50      	cmp	r3, #80	; 0x50
 8002a8a:	d1f6      	bne.n	8002a7a <HAL_TIM_ConfigClockSource+0x54>
 8002a8c:	684a      	ldr	r2, [r1, #4]
 8002a8e:	68ce      	ldr	r6, [r1, #12]
 8002a90:	6a01      	ldr	r1, [r0, #32]
 8002a92:	6a05      	ldr	r5, [r0, #32]
 8002a94:	f021 010a 	bic.w	r1, r1, #10
 8002a98:	f025 0501 	bic.w	r5, r5, #1
 8002a9c:	6205      	str	r5, [r0, #32]
 8002a9e:	6983      	ldr	r3, [r0, #24]
 8002aa0:	430a      	orrs	r2, r1
 8002aa2:	f023 03f0 	bic.w	r3, r3, #240	; 0xf0
 8002aa6:	ea43 1306 	orr.w	r3, r3, r6, lsl #4
 8002aaa:	6183      	str	r3, [r0, #24]
 8002aac:	6202      	str	r2, [r0, #32]
 8002aae:	6883      	ldr	r3, [r0, #8]
 8002ab0:	f023 0370 	bic.w	r3, r3, #112	; 0x70
 8002ab4:	f043 0357 	orr.w	r3, r3, #87	; 0x57
 8002ab8:	6083      	str	r3, [r0, #8]
 8002aba:	e7de      	b.n	8002a7a <HAL_TIM_ConfigClockSource+0x54>
 8002abc:	2b70      	cmp	r3, #112	; 0x70
 8002abe:	d00c      	beq.n	8002ada <HAL_TIM_ConfigClockSource+0xb4>
 8002ac0:	f5b3 5f00 	cmp.w	r3, #8192	; 0x2000
 8002ac4:	d1d9      	bne.n	8002a7a <HAL_TIM_ConfigClockSource+0x54>
 8002ac6:	68cb      	ldr	r3, [r1, #12]
 8002ac8:	e9d1 2101 	ldrd	r2, r1, [r1, #4]
 8002acc:	f7ff ffa1 	bl	8002a12 <TIM_ETR_SetConfig>
 8002ad0:	6822      	ldr	r2, [r4, #0]
 8002ad2:	6893      	ldr	r3, [r2, #8]
 8002ad4:	f443 4380 	orr.w	r3, r3, #16384	; 0x4000
 8002ad8:	e008      	b.n	8002aec <HAL_TIM_ConfigClockSource+0xc6>
 8002ada:	68cb      	ldr	r3, [r1, #12]
 8002adc:	e9d1 2101 	ldrd	r2, r1, [r1, #4]
 8002ae0:	f7ff ff97 	bl	8002a12 <TIM_ETR_SetConfig>
 8002ae4:	6822      	ldr	r2, [r4, #0]
 8002ae6:	6893      	ldr	r3, [r2, #8]
 8002ae8:	f043 0377 	orr.w	r3, r3, #119	; 0x77
 8002aec:	6093      	str	r3, [r2, #8]
 8002aee:	e7c4      	b.n	8002a7a <HAL_TIM_ConfigClockSource+0x54>
 8002af0:	684d      	ldr	r5, [r1, #4]
 8002af2:	68ce      	ldr	r6, [r1, #12]
 8002af4:	6a01      	ldr	r1, [r0, #32]
 8002af6:	f021 0110 	bic.w	r1, r1, #16
 8002afa:	6201      	str	r1, [r0, #32]
 8002afc:	6982      	ldr	r2, [r0, #24]
 8002afe:	6a03      	ldr	r3, [r0, #32]
 8002b00:	f422 4270 	bic.w	r2, r2, #61440	; 0xf000
 8002b04:	f023 03a0 	bic.w	r3, r3, #160	; 0xa0
 8002b08:	ea43 1305 	orr.w	r3, r3, r5, lsl #4
 8002b0c:	ea42 3206 	orr.w	r2, r2, r6, lsl #12
 8002b10:	6182      	str	r2, [r0, #24]
 8002b12:	6203      	str	r3, [r0, #32]
 8002b14:	6883      	ldr	r3, [r0, #8]
 8002b16:	f023 0370 	bic.w	r3, r3, #112	; 0x70
 8002b1a:	f043 0367 	orr.w	r3, r3, #103	; 0x67
 8002b1e:	e7cb      	b.n	8002ab8 <HAL_TIM_ConfigClockSource+0x92>
 8002b20:	684a      	ldr	r2, [r1, #4]
 8002b22:	68ce      	ldr	r6, [r1, #12]
 8002b24:	6a01      	ldr	r1, [r0, #32]
 8002b26:	6a05      	ldr	r5, [r0, #32]
 8002b28:	f021 010a 	bic.w	r1, r1, #10
 8002b2c:	f025 0501 	bic.w	r5, r5, #1
 8002b30:	6205      	str	r5, [r0, #32]
 8002b32:	6983      	ldr	r3, [r0, #24]
 8002b34:	430a      	orrs	r2, r1
 8002b36:	f023 03f0 	bic.w	r3, r3, #240	; 0xf0
 8002b3a:	ea43 1306 	orr.w	r3, r3, r6, lsl #4
 8002b3e:	6183      	str	r3, [r0, #24]
 8002b40:	6202      	str	r2, [r0, #32]
 8002b42:	6883      	ldr	r3, [r0, #8]
 8002b44:	f023 0370 	bic.w	r3, r3, #112	; 0x70
 8002b48:	f043 0347 	orr.w	r3, r3, #71	; 0x47
 8002b4c:	e7b4      	b.n	8002ab8 <HAL_TIM_ConfigClockSource+0x92>

08002b4e <TIM_CCxChannelCmd>:
 8002b4e:	b510      	push	{r4, lr}
 8002b50:	2401      	movs	r4, #1
 8002b52:	6a03      	ldr	r3, [r0, #32]
 8002b54:	f001 011f 	and.w	r1, r1, #31
 8002b58:	408c      	lsls	r4, r1
 8002b5a:	ea23 0304 	bic.w	r3, r3, r4
 8002b5e:	6203      	str	r3, [r0, #32]
 8002b60:	6a03      	ldr	r3, [r0, #32]
 8002b62:	408a      	lsls	r2, r1
 8002b64:	431a      	orrs	r2, r3
 8002b66:	6202      	str	r2, [r0, #32]
 8002b68:	bd10      	pop	{r4, pc}
	...

08002b6c <HAL_TIM_OC_Start_IT>:
 8002b6c:	b510      	push	{r4, lr}
 8002b6e:	4604      	mov	r4, r0
 8002b70:	b929      	cbnz	r1, 8002b7e <HAL_TIM_OC_Start_IT+0x12>
 8002b72:	f890 303e 	ldrb.w	r3, [r0, #62]	; 0x3e
 8002b76:	2b01      	cmp	r3, #1
 8002b78:	d02b      	beq.n	8002bd2 <HAL_TIM_OC_Start_IT+0x66>
 8002b7a:	2001      	movs	r0, #1
 8002b7c:	bd10      	pop	{r4, pc}
 8002b7e:	2904      	cmp	r1, #4
 8002b80:	d10b      	bne.n	8002b9a <HAL_TIM_OC_Start_IT+0x2e>
 8002b82:	f890 303f 	ldrb.w	r3, [r0, #63]	; 0x3f
 8002b86:	2b01      	cmp	r3, #1
 8002b88:	d1f7      	bne.n	8002b7a <HAL_TIM_OC_Start_IT+0xe>
 8002b8a:	2302      	movs	r3, #2
 8002b8c:	6802      	ldr	r2, [r0, #0]
 8002b8e:	f880 303f 	strb.w	r3, [r0, #63]	; 0x3f
 8002b92:	68d3      	ldr	r3, [r2, #12]
 8002b94:	f043 0304 	orr.w	r3, r3, #4
 8002b98:	e022      	b.n	8002be0 <HAL_TIM_OC_Start_IT+0x74>
 8002b9a:	2908      	cmp	r1, #8
 8002b9c:	d10b      	bne.n	8002bb6 <HAL_TIM_OC_Start_IT+0x4a>
 8002b9e:	f890 3040 	ldrb.w	r3, [r0, #64]	; 0x40
 8002ba2:	2b01      	cmp	r3, #1
 8002ba4:	d1e9      	bne.n	8002b7a <HAL_TIM_OC_Start_IT+0xe>
 8002ba6:	2302      	movs	r3, #2
 8002ba8:	6802      	ldr	r2, [r0, #0]
 8002baa:	f880 3040 	strb.w	r3, [r0, #64]	; 0x40
 8002bae:	68d3      	ldr	r3, [r2, #12]
 8002bb0:	f043 0308 	orr.w	r3, r3, #8
 8002bb4:	e014      	b.n	8002be0 <HAL_TIM_OC_Start_IT+0x74>
 8002bb6:	f890 3041 	ldrb.w	r3, [r0, #65]	; 0x41
 8002bba:	2b01      	cmp	r3, #1
 8002bbc:	d1dd      	bne.n	8002b7a <HAL_TIM_OC_Start_IT+0xe>
 8002bbe:	2302      	movs	r3, #2
 8002bc0:	290c      	cmp	r1, #12
 8002bc2:	f880 3041 	strb.w	r3, [r0, #65]	; 0x41
 8002bc6:	d10c      	bne.n	8002be2 <HAL_TIM_OC_Start_IT+0x76>
 8002bc8:	6802      	ldr	r2, [r0, #0]
 8002bca:	68d3      	ldr	r3, [r2, #12]
 8002bcc:	f043 0310 	orr.w	r3, r3, #16
 8002bd0:	e006      	b.n	8002be0 <HAL_TIM_OC_Start_IT+0x74>
 8002bd2:	2302      	movs	r3, #2
 8002bd4:	6802      	ldr	r2, [r0, #0]
 8002bd6:	f880 303e 	strb.w	r3, [r0, #62]	; 0x3e
 8002bda:	68d3      	ldr	r3, [r2, #12]
 8002bdc:	f043 0302 	orr.w	r3, r3, #2
 8002be0:	60d3      	str	r3, [r2, #12]
 8002be2:	2201      	movs	r2, #1
 8002be4:	6820      	ldr	r0, [r4, #0]
 8002be6:	f7ff ffb2 	bl	8002b4e <TIM_CCxChannelCmd>
 8002bea:	6823      	ldr	r3, [r4, #0]
 8002bec:	4a0e      	ldr	r2, [pc, #56]	; (8002c28 <HAL_TIM_OC_Start_IT+0xbc>)
 8002bee:	4293      	cmp	r3, r2
 8002bf0:	d10a      	bne.n	8002c08 <HAL_TIM_OC_Start_IT+0x9c>
 8002bf2:	6c5a      	ldr	r2, [r3, #68]	; 0x44
 8002bf4:	f442 4200 	orr.w	r2, r2, #32768	; 0x8000
 8002bf8:	645a      	str	r2, [r3, #68]	; 0x44
 8002bfa:	689a      	ldr	r2, [r3, #8]
 8002bfc:	f002 0207 	and.w	r2, r2, #7
 8002c00:	2a06      	cmp	r2, #6
 8002c02:	d10b      	bne.n	8002c1c <HAL_TIM_OC_Start_IT+0xb0>
 8002c04:	2000      	movs	r0, #0
 8002c06:	e7b9      	b.n	8002b7c <HAL_TIM_OC_Start_IT+0x10>
 8002c08:	f1b3 4f80 	cmp.w	r3, #1073741824	; 0x40000000
 8002c0c:	d0f5      	beq.n	8002bfa <HAL_TIM_OC_Start_IT+0x8e>
 8002c0e:	4a07      	ldr	r2, [pc, #28]	; (8002c2c <HAL_TIM_OC_Start_IT+0xc0>)
 8002c10:	4293      	cmp	r3, r2
 8002c12:	d0f2      	beq.n	8002bfa <HAL_TIM_OC_Start_IT+0x8e>
 8002c14:	f502 6280 	add.w	r2, r2, #1024	; 0x400
 8002c18:	4293      	cmp	r3, r2
 8002c1a:	d0ee      	beq.n	8002bfa <HAL_TIM_OC_Start_IT+0x8e>
 8002c1c:	681a      	ldr	r2, [r3, #0]
 8002c1e:	f042 0201 	orr.w	r2, r2, #1
 8002c22:	601a      	str	r2, [r3, #0]
 8002c24:	e7ee      	b.n	8002c04 <HAL_TIM_OC_Start_IT+0x98>
 8002c26:	bf00      	nop
 8002c28:	40012c00 	.word	0x40012c00
 8002c2c:	40000400 	.word	0x40000400

08002c30 <HAL_TIM_PWM_Start_IT>:
 8002c30:	f7ff bf9c 	b.w	8002b6c <HAL_TIM_OC_Start_IT>

08002c34 <HAL_TIMEx_MasterConfigSynchronization>:
 8002c34:	b530      	push	{r4, r5, lr}
 8002c36:	f890 303c 	ldrb.w	r3, [r0, #60]	; 0x3c
 8002c3a:	4602      	mov	r2, r0
 8002c3c:	2b01      	cmp	r3, #1
 8002c3e:	f04f 0002 	mov.w	r0, #2
 8002c42:	d022      	beq.n	8002c8a <HAL_TIMEx_MasterConfigSynchronization+0x56>
 8002c44:	6813      	ldr	r3, [r2, #0]
 8002c46:	f882 003d 	strb.w	r0, [r2, #61]	; 0x3d
 8002c4a:	685c      	ldr	r4, [r3, #4]
 8002c4c:	680d      	ldr	r5, [r1, #0]
 8002c4e:	f024 0470 	bic.w	r4, r4, #112	; 0x70
 8002c52:	432c      	orrs	r4, r5
 8002c54:	6898      	ldr	r0, [r3, #8]
 8002c56:	605c      	str	r4, [r3, #4]
 8002c58:	4c0c      	ldr	r4, [pc, #48]	; (8002c8c <HAL_TIMEx_MasterConfigSynchronization+0x58>)
 8002c5a:	42a3      	cmp	r3, r4
 8002c5c:	d00a      	beq.n	8002c74 <HAL_TIMEx_MasterConfigSynchronization+0x40>
 8002c5e:	f1b3 4f80 	cmp.w	r3, #1073741824	; 0x40000000
 8002c62:	d007      	beq.n	8002c74 <HAL_TIMEx_MasterConfigSynchronization+0x40>
 8002c64:	f5a4 3494 	sub.w	r4, r4, #75776	; 0x12800
 8002c68:	42a3      	cmp	r3, r4
 8002c6a:	d003      	beq.n	8002c74 <HAL_TIMEx_MasterConfigSynchronization+0x40>
 8002c6c:	f504 6480 	add.w	r4, r4, #1024	; 0x400
 8002c70:	42a3      	cmp	r3, r4
 8002c72:	d104      	bne.n	8002c7e <HAL_TIMEx_MasterConfigSynchronization+0x4a>
 8002c74:	6849      	ldr	r1, [r1, #4]
 8002c76:	f020 0080 	bic.w	r0, r0, #128	; 0x80
 8002c7a:	4301      	orrs	r1, r0
 8002c7c:	6099      	str	r1, [r3, #8]
 8002c7e:	2301      	movs	r3, #1
 8002c80:	2000      	movs	r0, #0
 8002c82:	f882 303d 	strb.w	r3, [r2, #61]	; 0x3d
 8002c86:	f882 003c 	strb.w	r0, [r2, #60]	; 0x3c
 8002c8a:	bd30      	pop	{r4, r5, pc}
 8002c8c:	40012c00 	.word	0x40012c00

08002c90 <HAL_TIMEx_CommutCallback>:
 8002c90:	4770      	bx	lr

08002c92 <HAL_TIMEx_BreakCallback>:
 8002c92:	4770      	bx	lr

08002c94 <UART_EndRxTransfer>:
 8002c94:	6803      	ldr	r3, [r0, #0]
 8002c96:	68da      	ldr	r2, [r3, #12]
 8002c98:	f422 7290 	bic.w	r2, r2, #288	; 0x120
 8002c9c:	60da      	str	r2, [r3, #12]
 8002c9e:	695a      	ldr	r2, [r3, #20]
 8002ca0:	f022 0201 	bic.w	r2, r2, #1
 8002ca4:	615a      	str	r2, [r3, #20]
 8002ca6:	2320      	movs	r3, #32
 8002ca8:	f880 303a 	strb.w	r3, [r0, #58]	; 0x3a
 8002cac:	4770      	bx	lr
	...

08002cb0 <UART_SetConfig>:
 8002cb0:	b510      	push	{r4, lr}
 8002cb2:	4604      	mov	r4, r0
 8002cb4:	6803      	ldr	r3, [r0, #0]
 8002cb6:	68c1      	ldr	r1, [r0, #12]
 8002cb8:	691a      	ldr	r2, [r3, #16]
 8002cba:	f422 5240 	bic.w	r2, r2, #12288	; 0x3000
 8002cbe:	430a      	orrs	r2, r1
 8002cc0:	611a      	str	r2, [r3, #16]
 8002cc2:	6882      	ldr	r2, [r0, #8]
 8002cc4:	6900      	ldr	r0, [r0, #16]
 8002cc6:	68d9      	ldr	r1, [r3, #12]
 8002cc8:	4302      	orrs	r2, r0
 8002cca:	6960      	ldr	r0, [r4, #20]
 8002ccc:	f421 51b0 	bic.w	r1, r1, #5632	; 0x1600
 8002cd0:	f021 010c 	bic.w	r1, r1, #12
 8002cd4:	4302      	orrs	r2, r0
 8002cd6:	430a      	orrs	r2, r1
 8002cd8:	60da      	str	r2, [r3, #12]
 8002cda:	695a      	ldr	r2, [r3, #20]
 8002cdc:	69a1      	ldr	r1, [r4, #24]
 8002cde:	f422 7240 	bic.w	r2, r2, #768	; 0x300
 8002ce2:	430a      	orrs	r2, r1
 8002ce4:	615a      	str	r2, [r3, #20]
 8002ce6:	4a0e      	ldr	r2, [pc, #56]	; (8002d20 <UART_SetConfig+0x70>)
 8002ce8:	4293      	cmp	r3, r2
 8002cea:	d115      	bne.n	8002d18 <UART_SetConfig+0x68>
 8002cec:	f7ff fb3c 	bl	8002368 <HAL_RCC_GetPCLK2Freq>
 8002cf0:	2319      	movs	r3, #25
 8002cf2:	4343      	muls	r3, r0
 8002cf4:	6862      	ldr	r2, [r4, #4]
 8002cf6:	6820      	ldr	r0, [r4, #0]
 8002cf8:	0092      	lsls	r2, r2, #2
 8002cfa:	fbb3 f3f2 	udiv	r3, r3, r2
 8002cfe:	2264      	movs	r2, #100	; 0x64
 8002d00:	fbb3 f1f2 	udiv	r1, r3, r2
 8002d04:	fb02 3311 	mls	r3, r2, r1, r3
 8002d08:	011b      	lsls	r3, r3, #4
 8002d0a:	3332      	adds	r3, #50	; 0x32
 8002d0c:	fbb3 f3f2 	udiv	r3, r3, r2
 8002d10:	eb03 1301 	add.w	r3, r3, r1, lsl #4
 8002d14:	6083      	str	r3, [r0, #8]
 8002d16:	bd10      	pop	{r4, pc}
 8002d18:	f7ff fb16 	bl	8002348 <HAL_RCC_GetPCLK1Freq>
 8002d1c:	e7e8      	b.n	8002cf0 <UART_SetConfig+0x40>
 8002d1e:	bf00      	nop
 8002d20:	40013800 	.word	0x40013800

08002d24 <HAL_UART_Init>:
 8002d24:	b510      	push	{r4, lr}
 8002d26:	4604      	mov	r4, r0
 8002d28:	b340      	cbz	r0, 8002d7c <HAL_UART_Init+0x58>
 8002d2a:	f890 3039 	ldrb.w	r3, [r0, #57]	; 0x39
 8002d2e:	f003 02ff 	and.w	r2, r3, #255	; 0xff
 8002d32:	b91b      	cbnz	r3, 8002d3c <HAL_UART_Init+0x18>
 8002d34:	f880 2038 	strb.w	r2, [r0, #56]	; 0x38
 8002d38:	f7fe faa2 	bl	8001280 <HAL_UART_MspInit>
 8002d3c:	2324      	movs	r3, #36	; 0x24
 8002d3e:	6822      	ldr	r2, [r4, #0]
 8002d40:	f884 3039 	strb.w	r3, [r4, #57]	; 0x39
 8002d44:	68d3      	ldr	r3, [r2, #12]
 8002d46:	4620      	mov	r0, r4
 8002d48:	f423 5300 	bic.w	r3, r3, #8192	; 0x2000
 8002d4c:	60d3      	str	r3, [r2, #12]
 8002d4e:	f7ff ffaf 	bl	8002cb0 <UART_SetConfig>
 8002d52:	6823      	ldr	r3, [r4, #0]
 8002d54:	2000      	movs	r0, #0
 8002d56:	691a      	ldr	r2, [r3, #16]
 8002d58:	f422 4290 	bic.w	r2, r2, #18432	; 0x4800
 8002d5c:	611a      	str	r2, [r3, #16]
 8002d5e:	695a      	ldr	r2, [r3, #20]
 8002d60:	f022 022a 	bic.w	r2, r2, #42	; 0x2a
 8002d64:	615a      	str	r2, [r3, #20]
 8002d66:	68da      	ldr	r2, [r3, #12]
 8002d68:	f442 5200 	orr.w	r2, r2, #8192	; 0x2000
 8002d6c:	60da      	str	r2, [r3, #12]
 8002d6e:	2320      	movs	r3, #32
 8002d70:	63e0      	str	r0, [r4, #60]	; 0x3c
 8002d72:	f884 3039 	strb.w	r3, [r4, #57]	; 0x39
 8002d76:	f884 303a 	strb.w	r3, [r4, #58]	; 0x3a
 8002d7a:	bd10      	pop	{r4, pc}
 8002d7c:	2001      	movs	r0, #1
 8002d7e:	e7fc      	b.n	8002d7a <HAL_UART_Init+0x56>

08002d80 <HAL_UART_Transmit_IT>:
 8002d80:	f890 3039 	ldrb.w	r3, [r0, #57]	; 0x39
 8002d84:	2b20      	cmp	r3, #32
 8002d86:	d118      	bne.n	8002dba <HAL_UART_Transmit_IT+0x3a>
 8002d88:	b1a9      	cbz	r1, 8002db6 <HAL_UART_Transmit_IT+0x36>
 8002d8a:	b1a2      	cbz	r2, 8002db6 <HAL_UART_Transmit_IT+0x36>
 8002d8c:	f890 3038 	ldrb.w	r3, [r0, #56]	; 0x38
 8002d90:	2b01      	cmp	r3, #1
 8002d92:	d012      	beq.n	8002dba <HAL_UART_Transmit_IT+0x3a>
 8002d94:	84c2      	strh	r2, [r0, #38]	; 0x26
 8002d96:	2300      	movs	r3, #0
 8002d98:	8482      	strh	r2, [r0, #36]	; 0x24
 8002d9a:	2221      	movs	r2, #33	; 0x21
 8002d9c:	6201      	str	r1, [r0, #32]
 8002d9e:	6801      	ldr	r1, [r0, #0]
 8002da0:	63c3      	str	r3, [r0, #60]	; 0x3c
 8002da2:	f880 3038 	strb.w	r3, [r0, #56]	; 0x38
 8002da6:	f880 2039 	strb.w	r2, [r0, #57]	; 0x39
 8002daa:	68ca      	ldr	r2, [r1, #12]
 8002dac:	4618      	mov	r0, r3
 8002dae:	f042 0280 	orr.w	r2, r2, #128	; 0x80
 8002db2:	60ca      	str	r2, [r1, #12]
 8002db4:	4770      	bx	lr
 8002db6:	2001      	movs	r0, #1
 8002db8:	4770      	bx	lr
 8002dba:	2002      	movs	r0, #2
 8002dbc:	4770      	bx	lr

08002dbe <HAL_UART_Receive_IT>:
 8002dbe:	f890 303a 	ldrb.w	r3, [r0, #58]	; 0x3a
 8002dc2:	2b20      	cmp	r3, #32
 8002dc4:	d120      	bne.n	8002e08 <HAL_UART_Receive_IT+0x4a>
 8002dc6:	b1e9      	cbz	r1, 8002e04 <HAL_UART_Receive_IT+0x46>
 8002dc8:	b1e2      	cbz	r2, 8002e04 <HAL_UART_Receive_IT+0x46>
 8002dca:	f890 3038 	ldrb.w	r3, [r0, #56]	; 0x38
 8002dce:	2b01      	cmp	r3, #1
 8002dd0:	d01a      	beq.n	8002e08 <HAL_UART_Receive_IT+0x4a>
 8002dd2:	85c2      	strh	r2, [r0, #46]	; 0x2e
 8002dd4:	8582      	strh	r2, [r0, #44]	; 0x2c
 8002dd6:	2300      	movs	r3, #0
 8002dd8:	2222      	movs	r2, #34	; 0x22
 8002dda:	63c3      	str	r3, [r0, #60]	; 0x3c
 8002ddc:	f880 203a 	strb.w	r2, [r0, #58]	; 0x3a
 8002de0:	6802      	ldr	r2, [r0, #0]
 8002de2:	f880 3038 	strb.w	r3, [r0, #56]	; 0x38
 8002de6:	6281      	str	r1, [r0, #40]	; 0x28
 8002de8:	68d1      	ldr	r1, [r2, #12]
 8002dea:	4618      	mov	r0, r3
 8002dec:	f441 7180 	orr.w	r1, r1, #256	; 0x100
 8002df0:	60d1      	str	r1, [r2, #12]
 8002df2:	6951      	ldr	r1, [r2, #20]
 8002df4:	f041 0101 	orr.w	r1, r1, #1
 8002df8:	6151      	str	r1, [r2, #20]
 8002dfa:	68d1      	ldr	r1, [r2, #12]
 8002dfc:	f041 0120 	orr.w	r1, r1, #32
 8002e00:	60d1      	str	r1, [r2, #12]
 8002e02:	4770      	bx	lr
 8002e04:	2001      	movs	r0, #1
 8002e06:	4770      	bx	lr
 8002e08:	2002      	movs	r0, #2
 8002e0a:	4770      	bx	lr

08002e0c <HAL_UART_TxCpltCallback>:
 8002e0c:	4770      	bx	lr

08002e0e <HAL_UART_RxCpltCallback>:
 8002e0e:	4770      	bx	lr

08002e10 <UART_Receive_IT>:
 8002e10:	b510      	push	{r4, lr}
 8002e12:	f890 303a 	ldrb.w	r3, [r0, #58]	; 0x3a
 8002e16:	2b22      	cmp	r3, #34	; 0x22
 8002e18:	d133      	bne.n	8002e82 <UART_Receive_IT+0x72>
 8002e1a:	6881      	ldr	r1, [r0, #8]
 8002e1c:	6a83      	ldr	r3, [r0, #40]	; 0x28
 8002e1e:	f5b1 5f80 	cmp.w	r1, #4096	; 0x1000
 8002e22:	6802      	ldr	r2, [r0, #0]
 8002e24:	d120      	bne.n	8002e68 <UART_Receive_IT+0x58>
 8002e26:	6901      	ldr	r1, [r0, #16]
 8002e28:	bb09      	cbnz	r1, 8002e6e <UART_Receive_IT+0x5e>
 8002e2a:	6852      	ldr	r2, [r2, #4]
 8002e2c:	f3c2 0208 	ubfx	r2, r2, #0, #9
 8002e30:	f823 2b02 	strh.w	r2, [r3], #2
 8002e34:	8dc4      	ldrh	r4, [r0, #46]	; 0x2e
 8002e36:	6283      	str	r3, [r0, #40]	; 0x28
 8002e38:	3c01      	subs	r4, #1
 8002e3a:	b2a4      	uxth	r4, r4
 8002e3c:	85c4      	strh	r4, [r0, #46]	; 0x2e
 8002e3e:	b98c      	cbnz	r4, 8002e64 <UART_Receive_IT+0x54>
 8002e40:	6803      	ldr	r3, [r0, #0]
 8002e42:	68da      	ldr	r2, [r3, #12]
 8002e44:	f022 0220 	bic.w	r2, r2, #32
 8002e48:	60da      	str	r2, [r3, #12]
 8002e4a:	68da      	ldr	r2, [r3, #12]
 8002e4c:	f422 7280 	bic.w	r2, r2, #256	; 0x100
 8002e50:	60da      	str	r2, [r3, #12]
 8002e52:	695a      	ldr	r2, [r3, #20]
 8002e54:	f022 0201 	bic.w	r2, r2, #1
 8002e58:	615a      	str	r2, [r3, #20]
 8002e5a:	2320      	movs	r3, #32
 8002e5c:	f880 303a 	strb.w	r3, [r0, #58]	; 0x3a
 8002e60:	f7ff ffd5 	bl	8002e0e <HAL_UART_RxCpltCallback>
 8002e64:	2000      	movs	r0, #0
 8002e66:	e00d      	b.n	8002e84 <UART_Receive_IT+0x74>
 8002e68:	b939      	cbnz	r1, 8002e7a <UART_Receive_IT+0x6a>
 8002e6a:	6901      	ldr	r1, [r0, #16]
 8002e6c:	b929      	cbnz	r1, 8002e7a <UART_Receive_IT+0x6a>
 8002e6e:	6852      	ldr	r2, [r2, #4]
 8002e70:	b2d2      	uxtb	r2, r2
 8002e72:	701a      	strb	r2, [r3, #0]
 8002e74:	6a83      	ldr	r3, [r0, #40]	; 0x28
 8002e76:	3301      	adds	r3, #1
 8002e78:	e7dc      	b.n	8002e34 <UART_Receive_IT+0x24>
 8002e7a:	6852      	ldr	r2, [r2, #4]
 8002e7c:	f002 027f 	and.w	r2, r2, #127	; 0x7f
 8002e80:	e7f7      	b.n	8002e72 <UART_Receive_IT+0x62>
 8002e82:	2002      	movs	r0, #2
 8002e84:	bd10      	pop	{r4, pc}

08002e86 <HAL_UART_ErrorCallback>:
 8002e86:	4770      	bx	lr

08002e88 <HAL_UART_IRQHandler>:
 8002e88:	6803      	ldr	r3, [r0, #0]
 8002e8a:	b570      	push	{r4, r5, r6, lr}
 8002e8c:	681a      	ldr	r2, [r3, #0]
 8002e8e:	4604      	mov	r4, r0
 8002e90:	0716      	lsls	r6, r2, #28
 8002e92:	68d9      	ldr	r1, [r3, #12]
 8002e94:	695d      	ldr	r5, [r3, #20]
 8002e96:	d107      	bne.n	8002ea8 <HAL_UART_IRQHandler+0x20>
 8002e98:	0696      	lsls	r6, r2, #26
 8002e9a:	d55c      	bpl.n	8002f56 <HAL_UART_IRQHandler+0xce>
 8002e9c:	068d      	lsls	r5, r1, #26
 8002e9e:	d55a      	bpl.n	8002f56 <HAL_UART_IRQHandler+0xce>
 8002ea0:	e8bd 4070 	ldmia.w	sp!, {r4, r5, r6, lr}
 8002ea4:	f7ff bfb4 	b.w	8002e10 <UART_Receive_IT>
 8002ea8:	f005 0001 	and.w	r0, r5, #1
 8002eac:	f401 7590 	and.w	r5, r1, #288	; 0x120
 8002eb0:	4305      	orrs	r5, r0
 8002eb2:	d050      	beq.n	8002f56 <HAL_UART_IRQHandler+0xce>
 8002eb4:	07d6      	lsls	r6, r2, #31
 8002eb6:	d505      	bpl.n	8002ec4 <HAL_UART_IRQHandler+0x3c>
 8002eb8:	05cd      	lsls	r5, r1, #23
 8002eba:	bf42      	ittt	mi
 8002ebc:	6be3      	ldrmi	r3, [r4, #60]	; 0x3c
 8002ebe:	f043 0301 	orrmi.w	r3, r3, #1
 8002ec2:	63e3      	strmi	r3, [r4, #60]	; 0x3c
 8002ec4:	0753      	lsls	r3, r2, #29
 8002ec6:	d504      	bpl.n	8002ed2 <HAL_UART_IRQHandler+0x4a>
 8002ec8:	b118      	cbz	r0, 8002ed2 <HAL_UART_IRQHandler+0x4a>
 8002eca:	6be3      	ldr	r3, [r4, #60]	; 0x3c
 8002ecc:	f043 0302 	orr.w	r3, r3, #2
 8002ed0:	63e3      	str	r3, [r4, #60]	; 0x3c
 8002ed2:	0796      	lsls	r6, r2, #30
 8002ed4:	d504      	bpl.n	8002ee0 <HAL_UART_IRQHandler+0x58>
 8002ed6:	b118      	cbz	r0, 8002ee0 <HAL_UART_IRQHandler+0x58>
 8002ed8:	6be3      	ldr	r3, [r4, #60]	; 0x3c
 8002eda:	f043 0304 	orr.w	r3, r3, #4
 8002ede:	63e3      	str	r3, [r4, #60]	; 0x3c
 8002ee0:	0715      	lsls	r5, r2, #28
 8002ee2:	d507      	bpl.n	8002ef4 <HAL_UART_IRQHandler+0x6c>
 8002ee4:	f001 0320 	and.w	r3, r1, #32
 8002ee8:	4303      	orrs	r3, r0
 8002eea:	bf1e      	ittt	ne
 8002eec:	6be3      	ldrne	r3, [r4, #60]	; 0x3c
 8002eee:	f043 0308 	orrne.w	r3, r3, #8
 8002ef2:	63e3      	strne	r3, [r4, #60]	; 0x3c
 8002ef4:	6be3      	ldr	r3, [r4, #60]	; 0x3c
 8002ef6:	b34b      	cbz	r3, 8002f4c <HAL_UART_IRQHandler+0xc4>
 8002ef8:	0690      	lsls	r0, r2, #26
 8002efa:	d504      	bpl.n	8002f06 <HAL_UART_IRQHandler+0x7e>
 8002efc:	0689      	lsls	r1, r1, #26
 8002efe:	d502      	bpl.n	8002f06 <HAL_UART_IRQHandler+0x7e>
 8002f00:	4620      	mov	r0, r4
 8002f02:	f7ff ff85 	bl	8002e10 <UART_Receive_IT>
 8002f06:	6823      	ldr	r3, [r4, #0]
 8002f08:	4620      	mov	r0, r4
 8002f0a:	695b      	ldr	r3, [r3, #20]
 8002f0c:	6be5      	ldr	r5, [r4, #60]	; 0x3c
 8002f0e:	f003 0340 	and.w	r3, r3, #64	; 0x40
 8002f12:	f005 0508 	and.w	r5, r5, #8
 8002f16:	431d      	orrs	r5, r3
 8002f18:	d019      	beq.n	8002f4e <HAL_UART_IRQHandler+0xc6>
 8002f1a:	f7ff febb 	bl	8002c94 <UART_EndRxTransfer>
 8002f1e:	6823      	ldr	r3, [r4, #0]
 8002f20:	695a      	ldr	r2, [r3, #20]
 8002f22:	0652      	lsls	r2, r2, #25
 8002f24:	d50f      	bpl.n	8002f46 <HAL_UART_IRQHandler+0xbe>
 8002f26:	695a      	ldr	r2, [r3, #20]
 8002f28:	6b60      	ldr	r0, [r4, #52]	; 0x34
 8002f2a:	f022 0240 	bic.w	r2, r2, #64	; 0x40
 8002f2e:	615a      	str	r2, [r3, #20]
 8002f30:	b148      	cbz	r0, 8002f46 <HAL_UART_IRQHandler+0xbe>
 8002f32:	4b25      	ldr	r3, [pc, #148]	; (8002fc8 <HAL_UART_IRQHandler+0x140>)
 8002f34:	6343      	str	r3, [r0, #52]	; 0x34
 8002f36:	f7fe fdff 	bl	8001b38 <HAL_DMA_Abort_IT>
 8002f3a:	b138      	cbz	r0, 8002f4c <HAL_UART_IRQHandler+0xc4>
 8002f3c:	6b60      	ldr	r0, [r4, #52]	; 0x34
 8002f3e:	e8bd 4070 	ldmia.w	sp!, {r4, r5, r6, lr}
 8002f42:	6b43      	ldr	r3, [r0, #52]	; 0x34
 8002f44:	4718      	bx	r3
 8002f46:	4620      	mov	r0, r4
 8002f48:	f7ff ff9d 	bl	8002e86 <HAL_UART_ErrorCallback>
 8002f4c:	bd70      	pop	{r4, r5, r6, pc}
 8002f4e:	f7ff ff9a 	bl	8002e86 <HAL_UART_ErrorCallback>
 8002f52:	63e5      	str	r5, [r4, #60]	; 0x3c
 8002f54:	e7fa      	b.n	8002f4c <HAL_UART_IRQHandler+0xc4>
 8002f56:	0616      	lsls	r6, r2, #24
 8002f58:	d526      	bpl.n	8002fa8 <HAL_UART_IRQHandler+0x120>
 8002f5a:	060d      	lsls	r5, r1, #24
 8002f5c:	d524      	bpl.n	8002fa8 <HAL_UART_IRQHandler+0x120>
 8002f5e:	f894 2039 	ldrb.w	r2, [r4, #57]	; 0x39
 8002f62:	2a21      	cmp	r2, #33	; 0x21
 8002f64:	d1f2      	bne.n	8002f4c <HAL_UART_IRQHandler+0xc4>
 8002f66:	68a1      	ldr	r1, [r4, #8]
 8002f68:	6a22      	ldr	r2, [r4, #32]
 8002f6a:	f5b1 5f80 	cmp.w	r1, #4096	; 0x1000
 8002f6e:	d116      	bne.n	8002f9e <HAL_UART_IRQHandler+0x116>
 8002f70:	6921      	ldr	r1, [r4, #16]
 8002f72:	b9a1      	cbnz	r1, 8002f9e <HAL_UART_IRQHandler+0x116>
 8002f74:	f832 1b02 	ldrh.w	r1, [r2], #2
 8002f78:	f3c1 0108 	ubfx	r1, r1, #0, #9
 8002f7c:	6059      	str	r1, [r3, #4]
 8002f7e:	6222      	str	r2, [r4, #32]
 8002f80:	8ce2      	ldrh	r2, [r4, #38]	; 0x26
 8002f82:	3a01      	subs	r2, #1
 8002f84:	b292      	uxth	r2, r2
 8002f86:	84e2      	strh	r2, [r4, #38]	; 0x26
 8002f88:	2a00      	cmp	r2, #0
 8002f8a:	d1df      	bne.n	8002f4c <HAL_UART_IRQHandler+0xc4>
 8002f8c:	68da      	ldr	r2, [r3, #12]
 8002f8e:	f022 0280 	bic.w	r2, r2, #128	; 0x80
 8002f92:	60da      	str	r2, [r3, #12]
 8002f94:	68da      	ldr	r2, [r3, #12]
 8002f96:	f042 0240 	orr.w	r2, r2, #64	; 0x40
 8002f9a:	60da      	str	r2, [r3, #12]
 8002f9c:	e7d6      	b.n	8002f4c <HAL_UART_IRQHandler+0xc4>
 8002f9e:	1c51      	adds	r1, r2, #1
 8002fa0:	6221      	str	r1, [r4, #32]
 8002fa2:	7812      	ldrb	r2, [r2, #0]
 8002fa4:	605a      	str	r2, [r3, #4]
 8002fa6:	e7eb      	b.n	8002f80 <HAL_UART_IRQHandler+0xf8>
 8002fa8:	0650      	lsls	r0, r2, #25
 8002faa:	d5cf      	bpl.n	8002f4c <HAL_UART_IRQHandler+0xc4>
 8002fac:	064a      	lsls	r2, r1, #25
 8002fae:	d5cd      	bpl.n	8002f4c <HAL_UART_IRQHandler+0xc4>
 8002fb0:	68da      	ldr	r2, [r3, #12]
 8002fb2:	4620      	mov	r0, r4
 8002fb4:	f022 0240 	bic.w	r2, r2, #64	; 0x40
 8002fb8:	60da      	str	r2, [r3, #12]
 8002fba:	2320      	movs	r3, #32
 8002fbc:	f884 3039 	strb.w	r3, [r4, #57]	; 0x39
 8002fc0:	f7ff ff24 	bl	8002e0c <HAL_UART_TxCpltCallback>
 8002fc4:	e7c2      	b.n	8002f4c <HAL_UART_IRQHandler+0xc4>
 8002fc6:	bf00      	nop
 8002fc8:	08002fcd 	.word	0x08002fcd

08002fcc <UART_DMAAbortOnError>:
 8002fcc:	b508      	push	{r3, lr}
 8002fce:	2300      	movs	r3, #0
 8002fd0:	6a40      	ldr	r0, [r0, #36]	; 0x24
 8002fd2:	85c3      	strh	r3, [r0, #46]	; 0x2e
 8002fd4:	84c3      	strh	r3, [r0, #38]	; 0x26
 8002fd6:	f7ff ff56 	bl	8002e86 <HAL_UART_ErrorCallback>
 8002fda:	bd08      	pop	{r3, pc}

08002fdc <__libc_init_array>:
 8002fdc:	b570      	push	{r4, r5, r6, lr}
 8002fde:	2600      	movs	r6, #0
 8002fe0:	4d0c      	ldr	r5, [pc, #48]	; (8003014 <__libc_init_array+0x38>)
 8002fe2:	4c0d      	ldr	r4, [pc, #52]	; (8003018 <__libc_init_array+0x3c>)
 8002fe4:	1b64      	subs	r4, r4, r5
 8002fe6:	10a4      	asrs	r4, r4, #2
 8002fe8:	42a6      	cmp	r6, r4
 8002fea:	d109      	bne.n	8003000 <__libc_init_array+0x24>
 8002fec:	f001 f8ac 	bl	8004148 <_init>
 8002ff0:	2600      	movs	r6, #0
 8002ff2:	4d0a      	ldr	r5, [pc, #40]	; (800301c <__libc_init_array+0x40>)
 8002ff4:	4c0a      	ldr	r4, [pc, #40]	; (8003020 <__libc_init_array+0x44>)
 8002ff6:	1b64      	subs	r4, r4, r5
 8002ff8:	10a4      	asrs	r4, r4, #2
 8002ffa:	42a6      	cmp	r6, r4
 8002ffc:	d105      	bne.n	800300a <__libc_init_array+0x2e>
 8002ffe:	bd70      	pop	{r4, r5, r6, pc}
 8003000:	f855 3b04 	ldr.w	r3, [r5], #4
 8003004:	4798      	blx	r3
 8003006:	3601      	adds	r6, #1
 8003008:	e7ee      	b.n	8002fe8 <__libc_init_array+0xc>
 800300a:	f855 3b04 	ldr.w	r3, [r5], #4
 800300e:	4798      	blx	r3
 8003010:	3601      	adds	r6, #1
 8003012:	e7f2      	b.n	8002ffa <__libc_init_array+0x1e>
 8003014:	08004610 	.word	0x08004610
 8003018:	08004610 	.word	0x08004610
 800301c:	08004610 	.word	0x08004610
 8003020:	08004618 	.word	0x08004618

08003024 <memset>:
 8003024:	4603      	mov	r3, r0
 8003026:	4402      	add	r2, r0
 8003028:	4293      	cmp	r3, r2
 800302a:	d100      	bne.n	800302e <memset+0xa>
 800302c:	4770      	bx	lr
 800302e:	f803 1b01 	strb.w	r1, [r3], #1
 8003032:	e7f9      	b.n	8003028 <memset+0x4>

08003034 <srand>:
 8003034:	b538      	push	{r3, r4, r5, lr}
 8003036:	4b10      	ldr	r3, [pc, #64]	; (8003078 <srand+0x44>)
 8003038:	4604      	mov	r4, r0
 800303a:	681d      	ldr	r5, [r3, #0]
 800303c:	6bab      	ldr	r3, [r5, #56]	; 0x38
 800303e:	b9b3      	cbnz	r3, 800306e <srand+0x3a>
 8003040:	2018      	movs	r0, #24
 8003042:	f000 f895 	bl	8003170 <malloc>
 8003046:	4602      	mov	r2, r0
 8003048:	63a8      	str	r0, [r5, #56]	; 0x38
 800304a:	b920      	cbnz	r0, 8003056 <srand+0x22>
 800304c:	2142      	movs	r1, #66	; 0x42
 800304e:	4b0b      	ldr	r3, [pc, #44]	; (800307c <srand+0x48>)
 8003050:	480b      	ldr	r0, [pc, #44]	; (8003080 <srand+0x4c>)
 8003052:	f000 f85d 	bl	8003110 <__assert_func>
 8003056:	490b      	ldr	r1, [pc, #44]	; (8003084 <srand+0x50>)
 8003058:	4b0b      	ldr	r3, [pc, #44]	; (8003088 <srand+0x54>)
 800305a:	e9c0 1300 	strd	r1, r3, [r0]
 800305e:	4b0b      	ldr	r3, [pc, #44]	; (800308c <srand+0x58>)
 8003060:	2100      	movs	r1, #0
 8003062:	6083      	str	r3, [r0, #8]
 8003064:	230b      	movs	r3, #11
 8003066:	8183      	strh	r3, [r0, #12]
 8003068:	2001      	movs	r0, #1
 800306a:	e9c2 0104 	strd	r0, r1, [r2, #16]
 800306e:	2200      	movs	r2, #0
 8003070:	6bab      	ldr	r3, [r5, #56]	; 0x38
 8003072:	611c      	str	r4, [r3, #16]
 8003074:	615a      	str	r2, [r3, #20]
 8003076:	bd38      	pop	{r3, r4, r5, pc}
 8003078:	20000074 	.word	0x20000074
 800307c:	080044c8 	.word	0x080044c8
 8003080:	080044df 	.word	0x080044df
 8003084:	abcd330e 	.word	0xabcd330e
 8003088:	e66d1234 	.word	0xe66d1234
 800308c:	0005deec 	.word	0x0005deec

08003090 <rand>:
 8003090:	4b17      	ldr	r3, [pc, #92]	; (80030f0 <rand+0x60>)
 8003092:	b510      	push	{r4, lr}
 8003094:	681c      	ldr	r4, [r3, #0]
 8003096:	6ba3      	ldr	r3, [r4, #56]	; 0x38
 8003098:	b9b3      	cbnz	r3, 80030c8 <rand+0x38>
 800309a:	2018      	movs	r0, #24
 800309c:	f000 f868 	bl	8003170 <malloc>
 80030a0:	4602      	mov	r2, r0
 80030a2:	63a0      	str	r0, [r4, #56]	; 0x38
 80030a4:	b920      	cbnz	r0, 80030b0 <rand+0x20>
 80030a6:	214e      	movs	r1, #78	; 0x4e
 80030a8:	4b12      	ldr	r3, [pc, #72]	; (80030f4 <rand+0x64>)
 80030aa:	4813      	ldr	r0, [pc, #76]	; (80030f8 <rand+0x68>)
 80030ac:	f000 f830 	bl	8003110 <__assert_func>
 80030b0:	4912      	ldr	r1, [pc, #72]	; (80030fc <rand+0x6c>)
 80030b2:	4b13      	ldr	r3, [pc, #76]	; (8003100 <rand+0x70>)
 80030b4:	e9c0 1300 	strd	r1, r3, [r0]
 80030b8:	4b12      	ldr	r3, [pc, #72]	; (8003104 <rand+0x74>)
 80030ba:	2100      	movs	r1, #0
 80030bc:	6083      	str	r3, [r0, #8]
 80030be:	230b      	movs	r3, #11
 80030c0:	8183      	strh	r3, [r0, #12]
 80030c2:	2001      	movs	r0, #1
 80030c4:	e9c2 0104 	strd	r0, r1, [r2, #16]
 80030c8:	6ba1      	ldr	r1, [r4, #56]	; 0x38
 80030ca:	480f      	ldr	r0, [pc, #60]	; (8003108 <rand+0x78>)
 80030cc:	690a      	ldr	r2, [r1, #16]
 80030ce:	694b      	ldr	r3, [r1, #20]
 80030d0:	4350      	muls	r0, r2
 80030d2:	4c0e      	ldr	r4, [pc, #56]	; (800310c <rand+0x7c>)
 80030d4:	fb04 0003 	mla	r0, r4, r3, r0
 80030d8:	fba2 3404 	umull	r3, r4, r2, r4
 80030dc:	1c5a      	adds	r2, r3, #1
 80030de:	4404      	add	r4, r0
 80030e0:	f144 0000 	adc.w	r0, r4, #0
 80030e4:	e9c1 2004 	strd	r2, r0, [r1, #16]
 80030e8:	f020 4000 	bic.w	r0, r0, #2147483648	; 0x80000000
 80030ec:	bd10      	pop	{r4, pc}
 80030ee:	bf00      	nop
 80030f0:	20000074 	.word	0x20000074
 80030f4:	080044c8 	.word	0x080044c8
 80030f8:	080044df 	.word	0x080044df
 80030fc:	abcd330e 	.word	0xabcd330e
 8003100:	e66d1234 	.word	0xe66d1234
 8003104:	0005deec 	.word	0x0005deec
 8003108:	5851f42d 	.word	0x5851f42d
 800310c:	4c957f2d 	.word	0x4c957f2d

08003110 <__assert_func>:
 8003110:	b51f      	push	{r0, r1, r2, r3, r4, lr}
 8003112:	4614      	mov	r4, r2
 8003114:	461a      	mov	r2, r3
 8003116:	4b09      	ldr	r3, [pc, #36]	; (800313c <__assert_func+0x2c>)
 8003118:	4605      	mov	r5, r0
 800311a:	681b      	ldr	r3, [r3, #0]
 800311c:	68d8      	ldr	r0, [r3, #12]
 800311e:	b14c      	cbz	r4, 8003134 <__assert_func+0x24>
 8003120:	4b07      	ldr	r3, [pc, #28]	; (8003140 <__assert_func+0x30>)
 8003122:	e9cd 3401 	strd	r3, r4, [sp, #4]
 8003126:	9100      	str	r1, [sp, #0]
 8003128:	462b      	mov	r3, r5
 800312a:	4906      	ldr	r1, [pc, #24]	; (8003144 <__assert_func+0x34>)
 800312c:	f000 f80e 	bl	800314c <fiprintf>
 8003130:	f000 fc8a 	bl	8003a48 <abort>
 8003134:	4b04      	ldr	r3, [pc, #16]	; (8003148 <__assert_func+0x38>)
 8003136:	461c      	mov	r4, r3
 8003138:	e7f3      	b.n	8003122 <__assert_func+0x12>
 800313a:	bf00      	nop
 800313c:	20000074 	.word	0x20000074
 8003140:	0800453e 	.word	0x0800453e
 8003144:	0800454b 	.word	0x0800454b
 8003148:	08004579 	.word	0x08004579

0800314c <fiprintf>:
 800314c:	b40e      	push	{r1, r2, r3}
 800314e:	b503      	push	{r0, r1, lr}
 8003150:	4601      	mov	r1, r0
 8003152:	ab03      	add	r3, sp, #12
 8003154:	4805      	ldr	r0, [pc, #20]	; (800316c <fiprintf+0x20>)
 8003156:	f853 2b04 	ldr.w	r2, [r3], #4
 800315a:	6800      	ldr	r0, [r0, #0]
 800315c:	9301      	str	r3, [sp, #4]
 800315e:	f000 f8dd 	bl	800331c <_vfiprintf_r>
 8003162:	b002      	add	sp, #8
 8003164:	f85d eb04 	ldr.w	lr, [sp], #4
 8003168:	b003      	add	sp, #12
 800316a:	4770      	bx	lr
 800316c:	20000074 	.word	0x20000074

08003170 <malloc>:
 8003170:	4b02      	ldr	r3, [pc, #8]	; (800317c <malloc+0xc>)
 8003172:	4601      	mov	r1, r0
 8003174:	6818      	ldr	r0, [r3, #0]
 8003176:	f000 b84f 	b.w	8003218 <_malloc_r>
 800317a:	bf00      	nop
 800317c:	20000074 	.word	0x20000074

08003180 <_free_r>:
 8003180:	b538      	push	{r3, r4, r5, lr}
 8003182:	4605      	mov	r5, r0
 8003184:	2900      	cmp	r1, #0
 8003186:	d043      	beq.n	8003210 <_free_r+0x90>
 8003188:	f851 3c04 	ldr.w	r3, [r1, #-4]
 800318c:	1f0c      	subs	r4, r1, #4
 800318e:	2b00      	cmp	r3, #0
 8003190:	bfb8      	it	lt
 8003192:	18e4      	addlt	r4, r4, r3
 8003194:	f000 fe8c 	bl	8003eb0 <__malloc_lock>
 8003198:	4a1e      	ldr	r2, [pc, #120]	; (8003214 <_free_r+0x94>)
 800319a:	6813      	ldr	r3, [r2, #0]
 800319c:	4610      	mov	r0, r2
 800319e:	b933      	cbnz	r3, 80031ae <_free_r+0x2e>
 80031a0:	6063      	str	r3, [r4, #4]
 80031a2:	6014      	str	r4, [r2, #0]
 80031a4:	4628      	mov	r0, r5
 80031a6:	e8bd 4038 	ldmia.w	sp!, {r3, r4, r5, lr}
 80031aa:	f000 be87 	b.w	8003ebc <__malloc_unlock>
 80031ae:	42a3      	cmp	r3, r4
 80031b0:	d90a      	bls.n	80031c8 <_free_r+0x48>
 80031b2:	6821      	ldr	r1, [r4, #0]
 80031b4:	1862      	adds	r2, r4, r1
 80031b6:	4293      	cmp	r3, r2
 80031b8:	bf01      	itttt	eq
 80031ba:	681a      	ldreq	r2, [r3, #0]
 80031bc:	685b      	ldreq	r3, [r3, #4]
 80031be:	1852      	addeq	r2, r2, r1
 80031c0:	6022      	streq	r2, [r4, #0]
 80031c2:	6063      	str	r3, [r4, #4]
 80031c4:	6004      	str	r4, [r0, #0]
 80031c6:	e7ed      	b.n	80031a4 <_free_r+0x24>
 80031c8:	461a      	mov	r2, r3
 80031ca:	685b      	ldr	r3, [r3, #4]
 80031cc:	b10b      	cbz	r3, 80031d2 <_free_r+0x52>
 80031ce:	42a3      	cmp	r3, r4
 80031d0:	d9fa      	bls.n	80031c8 <_free_r+0x48>
 80031d2:	6811      	ldr	r1, [r2, #0]
 80031d4:	1850      	adds	r0, r2, r1
 80031d6:	42a0      	cmp	r0, r4
 80031d8:	d10b      	bne.n	80031f2 <_free_r+0x72>
 80031da:	6820      	ldr	r0, [r4, #0]
 80031dc:	4401      	add	r1, r0
 80031de:	1850      	adds	r0, r2, r1
 80031e0:	4283      	cmp	r3, r0
 80031e2:	6011      	str	r1, [r2, #0]
 80031e4:	d1de      	bne.n	80031a4 <_free_r+0x24>
 80031e6:	6818      	ldr	r0, [r3, #0]
 80031e8:	685b      	ldr	r3, [r3, #4]
 80031ea:	4401      	add	r1, r0
 80031ec:	6011      	str	r1, [r2, #0]
 80031ee:	6053      	str	r3, [r2, #4]
 80031f0:	e7d8      	b.n	80031a4 <_free_r+0x24>
 80031f2:	d902      	bls.n	80031fa <_free_r+0x7a>
 80031f4:	230c      	movs	r3, #12
 80031f6:	602b      	str	r3, [r5, #0]
 80031f8:	e7d4      	b.n	80031a4 <_free_r+0x24>
 80031fa:	6820      	ldr	r0, [r4, #0]
 80031fc:	1821      	adds	r1, r4, r0
 80031fe:	428b      	cmp	r3, r1
 8003200:	bf01      	itttt	eq
 8003202:	6819      	ldreq	r1, [r3, #0]
 8003204:	685b      	ldreq	r3, [r3, #4]
 8003206:	1809      	addeq	r1, r1, r0
 8003208:	6021      	streq	r1, [r4, #0]
 800320a:	6063      	str	r3, [r4, #4]
 800320c:	6054      	str	r4, [r2, #4]
 800320e:	e7c9      	b.n	80031a4 <_free_r+0x24>
 8003210:	bd38      	pop	{r3, r4, r5, pc}
 8003212:	bf00      	nop
 8003214:	20000298 	.word	0x20000298

08003218 <_malloc_r>:
 8003218:	b5f8      	push	{r3, r4, r5, r6, r7, lr}
 800321a:	1ccd      	adds	r5, r1, #3
 800321c:	f025 0503 	bic.w	r5, r5, #3
 8003220:	3508      	adds	r5, #8
 8003222:	2d0c      	cmp	r5, #12
 8003224:	bf38      	it	cc
 8003226:	250c      	movcc	r5, #12
 8003228:	2d00      	cmp	r5, #0
 800322a:	4606      	mov	r6, r0
 800322c:	db01      	blt.n	8003232 <_malloc_r+0x1a>
 800322e:	42a9      	cmp	r1, r5
 8003230:	d903      	bls.n	800323a <_malloc_r+0x22>
 8003232:	230c      	movs	r3, #12
 8003234:	6033      	str	r3, [r6, #0]
 8003236:	2000      	movs	r0, #0
 8003238:	bdf8      	pop	{r3, r4, r5, r6, r7, pc}
 800323a:	f000 fe39 	bl	8003eb0 <__malloc_lock>
 800323e:	4921      	ldr	r1, [pc, #132]	; (80032c4 <_malloc_r+0xac>)
 8003240:	680a      	ldr	r2, [r1, #0]
 8003242:	4614      	mov	r4, r2
 8003244:	b99c      	cbnz	r4, 800326e <_malloc_r+0x56>
 8003246:	4f20      	ldr	r7, [pc, #128]	; (80032c8 <_malloc_r+0xb0>)
 8003248:	683b      	ldr	r3, [r7, #0]
 800324a:	b923      	cbnz	r3, 8003256 <_malloc_r+0x3e>
 800324c:	4621      	mov	r1, r4
 800324e:	4630      	mov	r0, r6
 8003250:	f000 fb2a 	bl	80038a8 <_sbrk_r>
 8003254:	6038      	str	r0, [r7, #0]
 8003256:	4629      	mov	r1, r5
 8003258:	4630      	mov	r0, r6
 800325a:	f000 fb25 	bl	80038a8 <_sbrk_r>
 800325e:	1c43      	adds	r3, r0, #1
 8003260:	d123      	bne.n	80032aa <_malloc_r+0x92>
 8003262:	230c      	movs	r3, #12
 8003264:	4630      	mov	r0, r6
 8003266:	6033      	str	r3, [r6, #0]
 8003268:	f000 fe28 	bl	8003ebc <__malloc_unlock>
 800326c:	e7e3      	b.n	8003236 <_malloc_r+0x1e>
 800326e:	6823      	ldr	r3, [r4, #0]
 8003270:	1b5b      	subs	r3, r3, r5
 8003272:	d417      	bmi.n	80032a4 <_malloc_r+0x8c>
 8003274:	2b0b      	cmp	r3, #11
 8003276:	d903      	bls.n	8003280 <_malloc_r+0x68>
 8003278:	6023      	str	r3, [r4, #0]
 800327a:	441c      	add	r4, r3
 800327c:	6025      	str	r5, [r4, #0]
 800327e:	e004      	b.n	800328a <_malloc_r+0x72>
 8003280:	6863      	ldr	r3, [r4, #4]
 8003282:	42a2      	cmp	r2, r4
 8003284:	bf0c      	ite	eq
 8003286:	600b      	streq	r3, [r1, #0]
 8003288:	6053      	strne	r3, [r2, #4]
 800328a:	4630      	mov	r0, r6
 800328c:	f000 fe16 	bl	8003ebc <__malloc_unlock>
 8003290:	f104 000b 	add.w	r0, r4, #11
 8003294:	1d23      	adds	r3, r4, #4
 8003296:	f020 0007 	bic.w	r0, r0, #7
 800329a:	1ac2      	subs	r2, r0, r3
 800329c:	d0cc      	beq.n	8003238 <_malloc_r+0x20>
 800329e:	1a1b      	subs	r3, r3, r0
 80032a0:	50a3      	str	r3, [r4, r2]
 80032a2:	e7c9      	b.n	8003238 <_malloc_r+0x20>
 80032a4:	4622      	mov	r2, r4
 80032a6:	6864      	ldr	r4, [r4, #4]
 80032a8:	e7cc      	b.n	8003244 <_malloc_r+0x2c>
 80032aa:	1cc4      	adds	r4, r0, #3
 80032ac:	f024 0403 	bic.w	r4, r4, #3
 80032b0:	42a0      	cmp	r0, r4
 80032b2:	d0e3      	beq.n	800327c <_malloc_r+0x64>
 80032b4:	1a21      	subs	r1, r4, r0
 80032b6:	4630      	mov	r0, r6
 80032b8:	f000 faf6 	bl	80038a8 <_sbrk_r>
 80032bc:	3001      	adds	r0, #1
 80032be:	d1dd      	bne.n	800327c <_malloc_r+0x64>
 80032c0:	e7cf      	b.n	8003262 <_malloc_r+0x4a>
 80032c2:	bf00      	nop
 80032c4:	20000298 	.word	0x20000298
 80032c8:	2000029c 	.word	0x2000029c

080032cc <__sfputc_r>:
 80032cc:	6893      	ldr	r3, [r2, #8]
 80032ce:	b410      	push	{r4}
 80032d0:	3b01      	subs	r3, #1
 80032d2:	2b00      	cmp	r3, #0
 80032d4:	6093      	str	r3, [r2, #8]
 80032d6:	da07      	bge.n	80032e8 <__sfputc_r+0x1c>
 80032d8:	6994      	ldr	r4, [r2, #24]
 80032da:	42a3      	cmp	r3, r4
 80032dc:	db01      	blt.n	80032e2 <__sfputc_r+0x16>
 80032de:	290a      	cmp	r1, #10
 80032e0:	d102      	bne.n	80032e8 <__sfputc_r+0x1c>
 80032e2:	bc10      	pop	{r4}
 80032e4:	f000 baf0 	b.w	80038c8 <__swbuf_r>
 80032e8:	6813      	ldr	r3, [r2, #0]
 80032ea:	1c58      	adds	r0, r3, #1
 80032ec:	6010      	str	r0, [r2, #0]
 80032ee:	7019      	strb	r1, [r3, #0]
 80032f0:	4608      	mov	r0, r1
 80032f2:	bc10      	pop	{r4}
 80032f4:	4770      	bx	lr

080032f6 <__sfputs_r>:
 80032f6:	b5f8      	push	{r3, r4, r5, r6, r7, lr}
 80032f8:	4606      	mov	r6, r0
 80032fa:	460f      	mov	r7, r1
 80032fc:	4614      	mov	r4, r2
 80032fe:	18d5      	adds	r5, r2, r3
 8003300:	42ac      	cmp	r4, r5
 8003302:	d101      	bne.n	8003308 <__sfputs_r+0x12>
 8003304:	2000      	movs	r0, #0
 8003306:	e007      	b.n	8003318 <__sfputs_r+0x22>
 8003308:	463a      	mov	r2, r7
 800330a:	4630      	mov	r0, r6
 800330c:	f814 1b01 	ldrb.w	r1, [r4], #1
 8003310:	f7ff ffdc 	bl	80032cc <__sfputc_r>
 8003314:	1c43      	adds	r3, r0, #1
 8003316:	d1f3      	bne.n	8003300 <__sfputs_r+0xa>
 8003318:	bdf8      	pop	{r3, r4, r5, r6, r7, pc}
	...

0800331c <_vfiprintf_r>:
 800331c:	e92d 4ff0 	stmdb	sp!, {r4, r5, r6, r7, r8, r9, sl, fp, lr}
 8003320:	460d      	mov	r5, r1
 8003322:	4614      	mov	r4, r2
 8003324:	4698      	mov	r8, r3
 8003326:	4606      	mov	r6, r0
 8003328:	b09d      	sub	sp, #116	; 0x74
 800332a:	b118      	cbz	r0, 8003334 <_vfiprintf_r+0x18>
 800332c:	6983      	ldr	r3, [r0, #24]
 800332e:	b90b      	cbnz	r3, 8003334 <_vfiprintf_r+0x18>
 8003330:	f000 fcac 	bl	8003c8c <__sinit>
 8003334:	4b89      	ldr	r3, [pc, #548]	; (800355c <_vfiprintf_r+0x240>)
 8003336:	429d      	cmp	r5, r3
 8003338:	d11b      	bne.n	8003372 <_vfiprintf_r+0x56>
 800333a:	6875      	ldr	r5, [r6, #4]
 800333c:	6e6b      	ldr	r3, [r5, #100]	; 0x64
 800333e:	07d9      	lsls	r1, r3, #31
 8003340:	d405      	bmi.n	800334e <_vfiprintf_r+0x32>
 8003342:	89ab      	ldrh	r3, [r5, #12]
 8003344:	059a      	lsls	r2, r3, #22
 8003346:	d402      	bmi.n	800334e <_vfiprintf_r+0x32>
 8003348:	6da8      	ldr	r0, [r5, #88]	; 0x58
 800334a:	f000 fd3d 	bl	8003dc8 <__retarget_lock_acquire_recursive>
 800334e:	89ab      	ldrh	r3, [r5, #12]
 8003350:	071b      	lsls	r3, r3, #28
 8003352:	d501      	bpl.n	8003358 <_vfiprintf_r+0x3c>
 8003354:	692b      	ldr	r3, [r5, #16]
 8003356:	b9eb      	cbnz	r3, 8003394 <_vfiprintf_r+0x78>
 8003358:	4629      	mov	r1, r5
 800335a:	4630      	mov	r0, r6
 800335c:	f000 fb06 	bl	800396c <__swsetup_r>
 8003360:	b1c0      	cbz	r0, 8003394 <_vfiprintf_r+0x78>
 8003362:	6e6b      	ldr	r3, [r5, #100]	; 0x64
 8003364:	07dc      	lsls	r4, r3, #31
 8003366:	d50e      	bpl.n	8003386 <_vfiprintf_r+0x6a>
 8003368:	f04f 30ff 	mov.w	r0, #4294967295
 800336c:	b01d      	add	sp, #116	; 0x74
 800336e:	e8bd 8ff0 	ldmia.w	sp!, {r4, r5, r6, r7, r8, r9, sl, fp, pc}
 8003372:	4b7b      	ldr	r3, [pc, #492]	; (8003560 <_vfiprintf_r+0x244>)
 8003374:	429d      	cmp	r5, r3
 8003376:	d101      	bne.n	800337c <_vfiprintf_r+0x60>
 8003378:	68b5      	ldr	r5, [r6, #8]
 800337a:	e7df      	b.n	800333c <_vfiprintf_r+0x20>
 800337c:	4b79      	ldr	r3, [pc, #484]	; (8003564 <_vfiprintf_r+0x248>)
 800337e:	429d      	cmp	r5, r3
 8003380:	bf08      	it	eq
 8003382:	68f5      	ldreq	r5, [r6, #12]
 8003384:	e7da      	b.n	800333c <_vfiprintf_r+0x20>
 8003386:	89ab      	ldrh	r3, [r5, #12]
 8003388:	0598      	lsls	r0, r3, #22
 800338a:	d4ed      	bmi.n	8003368 <_vfiprintf_r+0x4c>
 800338c:	6da8      	ldr	r0, [r5, #88]	; 0x58
 800338e:	f000 fd1c 	bl	8003dca <__retarget_lock_release_recursive>
 8003392:	e7e9      	b.n	8003368 <_vfiprintf_r+0x4c>
 8003394:	2300      	movs	r3, #0
 8003396:	9309      	str	r3, [sp, #36]	; 0x24
 8003398:	2320      	movs	r3, #32
 800339a:	f88d 3029 	strb.w	r3, [sp, #41]	; 0x29
 800339e:	2330      	movs	r3, #48	; 0x30
 80033a0:	f04f 0901 	mov.w	r9, #1
 80033a4:	f8cd 800c 	str.w	r8, [sp, #12]
 80033a8:	f8df 81bc 	ldr.w	r8, [pc, #444]	; 8003568 <_vfiprintf_r+0x24c>
 80033ac:	f88d 302a 	strb.w	r3, [sp, #42]	; 0x2a
 80033b0:	4623      	mov	r3, r4
 80033b2:	469a      	mov	sl, r3
 80033b4:	f813 2b01 	ldrb.w	r2, [r3], #1
 80033b8:	b10a      	cbz	r2, 80033be <_vfiprintf_r+0xa2>
 80033ba:	2a25      	cmp	r2, #37	; 0x25
 80033bc:	d1f9      	bne.n	80033b2 <_vfiprintf_r+0x96>
 80033be:	ebba 0b04 	subs.w	fp, sl, r4
 80033c2:	d00b      	beq.n	80033dc <_vfiprintf_r+0xc0>
 80033c4:	465b      	mov	r3, fp
 80033c6:	4622      	mov	r2, r4
 80033c8:	4629      	mov	r1, r5
 80033ca:	4630      	mov	r0, r6
 80033cc:	f7ff ff93 	bl	80032f6 <__sfputs_r>
 80033d0:	3001      	adds	r0, #1
 80033d2:	f000 80aa 	beq.w	800352a <_vfiprintf_r+0x20e>
 80033d6:	9a09      	ldr	r2, [sp, #36]	; 0x24
 80033d8:	445a      	add	r2, fp
 80033da:	9209      	str	r2, [sp, #36]	; 0x24
 80033dc:	f89a 3000 	ldrb.w	r3, [sl]
 80033e0:	2b00      	cmp	r3, #0
 80033e2:	f000 80a2 	beq.w	800352a <_vfiprintf_r+0x20e>
 80033e6:	2300      	movs	r3, #0
 80033e8:	f04f 32ff 	mov.w	r2, #4294967295
 80033ec:	e9cd 2305 	strd	r2, r3, [sp, #20]
 80033f0:	f10a 0a01 	add.w	sl, sl, #1
 80033f4:	9304      	str	r3, [sp, #16]
 80033f6:	9307      	str	r3, [sp, #28]
 80033f8:	f88d 3053 	strb.w	r3, [sp, #83]	; 0x53
 80033fc:	931a      	str	r3, [sp, #104]	; 0x68
 80033fe:	4654      	mov	r4, sl
 8003400:	2205      	movs	r2, #5
 8003402:	f814 1b01 	ldrb.w	r1, [r4], #1
 8003406:	4858      	ldr	r0, [pc, #352]	; (8003568 <_vfiprintf_r+0x24c>)
 8003408:	f000 fd44 	bl	8003e94 <memchr>
 800340c:	9a04      	ldr	r2, [sp, #16]
 800340e:	b9d8      	cbnz	r0, 8003448 <_vfiprintf_r+0x12c>
 8003410:	06d1      	lsls	r1, r2, #27
 8003412:	bf44      	itt	mi
 8003414:	2320      	movmi	r3, #32
 8003416:	f88d 3053 	strbmi.w	r3, [sp, #83]	; 0x53
 800341a:	0713      	lsls	r3, r2, #28
 800341c:	bf44      	itt	mi
 800341e:	232b      	movmi	r3, #43	; 0x2b
 8003420:	f88d 3053 	strbmi.w	r3, [sp, #83]	; 0x53
 8003424:	f89a 3000 	ldrb.w	r3, [sl]
 8003428:	2b2a      	cmp	r3, #42	; 0x2a
 800342a:	d015      	beq.n	8003458 <_vfiprintf_r+0x13c>
 800342c:	4654      	mov	r4, sl
 800342e:	2000      	movs	r0, #0
 8003430:	f04f 0c0a 	mov.w	ip, #10
 8003434:	9a07      	ldr	r2, [sp, #28]
 8003436:	4621      	mov	r1, r4
 8003438:	f811 3b01 	ldrb.w	r3, [r1], #1
 800343c:	3b30      	subs	r3, #48	; 0x30
 800343e:	2b09      	cmp	r3, #9
 8003440:	d94e      	bls.n	80034e0 <_vfiprintf_r+0x1c4>
 8003442:	b1b0      	cbz	r0, 8003472 <_vfiprintf_r+0x156>
 8003444:	9207      	str	r2, [sp, #28]
 8003446:	e014      	b.n	8003472 <_vfiprintf_r+0x156>
 8003448:	eba0 0308 	sub.w	r3, r0, r8
 800344c:	fa09 f303 	lsl.w	r3, r9, r3
 8003450:	4313      	orrs	r3, r2
 8003452:	46a2      	mov	sl, r4
 8003454:	9304      	str	r3, [sp, #16]
 8003456:	e7d2      	b.n	80033fe <_vfiprintf_r+0xe2>
 8003458:	9b03      	ldr	r3, [sp, #12]
 800345a:	1d19      	adds	r1, r3, #4
 800345c:	681b      	ldr	r3, [r3, #0]
 800345e:	9103      	str	r1, [sp, #12]
 8003460:	2b00      	cmp	r3, #0
 8003462:	bfbb      	ittet	lt
 8003464:	425b      	neglt	r3, r3
 8003466:	f042 0202 	orrlt.w	r2, r2, #2
 800346a:	9307      	strge	r3, [sp, #28]
 800346c:	9307      	strlt	r3, [sp, #28]
 800346e:	bfb8      	it	lt
 8003470:	9204      	strlt	r2, [sp, #16]
 8003472:	7823      	ldrb	r3, [r4, #0]
 8003474:	2b2e      	cmp	r3, #46	; 0x2e
 8003476:	d10c      	bne.n	8003492 <_vfiprintf_r+0x176>
 8003478:	7863      	ldrb	r3, [r4, #1]
 800347a:	2b2a      	cmp	r3, #42	; 0x2a
 800347c:	d135      	bne.n	80034ea <_vfiprintf_r+0x1ce>
 800347e:	9b03      	ldr	r3, [sp, #12]
 8003480:	3402      	adds	r4, #2
 8003482:	1d1a      	adds	r2, r3, #4
 8003484:	681b      	ldr	r3, [r3, #0]
 8003486:	9203      	str	r2, [sp, #12]
 8003488:	2b00      	cmp	r3, #0
 800348a:	bfb8      	it	lt
 800348c:	f04f 33ff 	movlt.w	r3, #4294967295
 8003490:	9305      	str	r3, [sp, #20]
 8003492:	f8df a0e4 	ldr.w	sl, [pc, #228]	; 8003578 <_vfiprintf_r+0x25c>
 8003496:	2203      	movs	r2, #3
 8003498:	4650      	mov	r0, sl
 800349a:	7821      	ldrb	r1, [r4, #0]
 800349c:	f000 fcfa 	bl	8003e94 <memchr>
 80034a0:	b140      	cbz	r0, 80034b4 <_vfiprintf_r+0x198>
 80034a2:	2340      	movs	r3, #64	; 0x40
 80034a4:	eba0 000a 	sub.w	r0, r0, sl
 80034a8:	fa03 f000 	lsl.w	r0, r3, r0
 80034ac:	9b04      	ldr	r3, [sp, #16]
 80034ae:	3401      	adds	r4, #1
 80034b0:	4303      	orrs	r3, r0
 80034b2:	9304      	str	r3, [sp, #16]
 80034b4:	f814 1b01 	ldrb.w	r1, [r4], #1
 80034b8:	2206      	movs	r2, #6
 80034ba:	482c      	ldr	r0, [pc, #176]	; (800356c <_vfiprintf_r+0x250>)
 80034bc:	f88d 1028 	strb.w	r1, [sp, #40]	; 0x28
 80034c0:	f000 fce8 	bl	8003e94 <memchr>
 80034c4:	2800      	cmp	r0, #0
 80034c6:	d03f      	beq.n	8003548 <_vfiprintf_r+0x22c>
 80034c8:	4b29      	ldr	r3, [pc, #164]	; (8003570 <_vfiprintf_r+0x254>)
 80034ca:	bb1b      	cbnz	r3, 8003514 <_vfiprintf_r+0x1f8>
 80034cc:	9b03      	ldr	r3, [sp, #12]
 80034ce:	3307      	adds	r3, #7
 80034d0:	f023 0307 	bic.w	r3, r3, #7
 80034d4:	3308      	adds	r3, #8
 80034d6:	9303      	str	r3, [sp, #12]
 80034d8:	9b09      	ldr	r3, [sp, #36]	; 0x24
 80034da:	443b      	add	r3, r7
 80034dc:	9309      	str	r3, [sp, #36]	; 0x24
 80034de:	e767      	b.n	80033b0 <_vfiprintf_r+0x94>
 80034e0:	460c      	mov	r4, r1
 80034e2:	2001      	movs	r0, #1
 80034e4:	fb0c 3202 	mla	r2, ip, r2, r3
 80034e8:	e7a5      	b.n	8003436 <_vfiprintf_r+0x11a>
 80034ea:	2300      	movs	r3, #0
 80034ec:	f04f 0c0a 	mov.w	ip, #10
 80034f0:	4619      	mov	r1, r3
 80034f2:	3401      	adds	r4, #1
 80034f4:	9305      	str	r3, [sp, #20]
 80034f6:	4620      	mov	r0, r4
 80034f8:	f810 2b01 	ldrb.w	r2, [r0], #1
 80034fc:	3a30      	subs	r2, #48	; 0x30
 80034fe:	2a09      	cmp	r2, #9
 8003500:	d903      	bls.n	800350a <_vfiprintf_r+0x1ee>
 8003502:	2b00      	cmp	r3, #0
 8003504:	d0c5      	beq.n	8003492 <_vfiprintf_r+0x176>
 8003506:	9105      	str	r1, [sp, #20]
 8003508:	e7c3      	b.n	8003492 <_vfiprintf_r+0x176>
 800350a:	4604      	mov	r4, r0
 800350c:	2301      	movs	r3, #1
 800350e:	fb0c 2101 	mla	r1, ip, r1, r2
 8003512:	e7f0      	b.n	80034f6 <_vfiprintf_r+0x1da>
 8003514:	ab03      	add	r3, sp, #12
 8003516:	9300      	str	r3, [sp, #0]
 8003518:	462a      	mov	r2, r5
 800351a:	4630      	mov	r0, r6
 800351c:	4b15      	ldr	r3, [pc, #84]	; (8003574 <_vfiprintf_r+0x258>)
 800351e:	a904      	add	r1, sp, #16
 8003520:	f3af 8000 	nop.w
 8003524:	4607      	mov	r7, r0
 8003526:	1c78      	adds	r0, r7, #1
 8003528:	d1d6      	bne.n	80034d8 <_vfiprintf_r+0x1bc>
 800352a:	6e6b      	ldr	r3, [r5, #100]	; 0x64
 800352c:	07d9      	lsls	r1, r3, #31
 800352e:	d405      	bmi.n	800353c <_vfiprintf_r+0x220>
 8003530:	89ab      	ldrh	r3, [r5, #12]
 8003532:	059a      	lsls	r2, r3, #22
 8003534:	d402      	bmi.n	800353c <_vfiprintf_r+0x220>
 8003536:	6da8      	ldr	r0, [r5, #88]	; 0x58
 8003538:	f000 fc47 	bl	8003dca <__retarget_lock_release_recursive>
 800353c:	89ab      	ldrh	r3, [r5, #12]
 800353e:	065b      	lsls	r3, r3, #25
 8003540:	f53f af12 	bmi.w	8003368 <_vfiprintf_r+0x4c>
 8003544:	9809      	ldr	r0, [sp, #36]	; 0x24
 8003546:	e711      	b.n	800336c <_vfiprintf_r+0x50>
 8003548:	ab03      	add	r3, sp, #12
 800354a:	9300      	str	r3, [sp, #0]
 800354c:	462a      	mov	r2, r5
 800354e:	4630      	mov	r0, r6
 8003550:	4b08      	ldr	r3, [pc, #32]	; (8003574 <_vfiprintf_r+0x258>)
 8003552:	a904      	add	r1, sp, #16
 8003554:	f000 f882 	bl	800365c <_printf_i>
 8003558:	e7e4      	b.n	8003524 <_vfiprintf_r+0x208>
 800355a:	bf00      	nop
 800355c:	080045d0 	.word	0x080045d0
 8003560:	080045f0 	.word	0x080045f0
 8003564:	080045b0 	.word	0x080045b0
 8003568:	0800457a 	.word	0x0800457a
 800356c:	08004584 	.word	0x08004584
 8003570:	00000000 	.word	0x00000000
 8003574:	080032f7 	.word	0x080032f7
 8003578:	08004580 	.word	0x08004580

0800357c <_printf_common>:
 800357c:	e92d 47f0 	stmdb	sp!, {r4, r5, r6, r7, r8, r9, sl, lr}
 8003580:	4616      	mov	r6, r2
 8003582:	4699      	mov	r9, r3
 8003584:	688a      	ldr	r2, [r1, #8]
 8003586:	690b      	ldr	r3, [r1, #16]
 8003588:	4607      	mov	r7, r0
 800358a:	4293      	cmp	r3, r2
 800358c:	bfb8      	it	lt
 800358e:	4613      	movlt	r3, r2
 8003590:	6033      	str	r3, [r6, #0]
 8003592:	f891 2043 	ldrb.w	r2, [r1, #67]	; 0x43
 8003596:	460c      	mov	r4, r1
 8003598:	f8dd 8020 	ldr.w	r8, [sp, #32]
 800359c:	b10a      	cbz	r2, 80035a2 <_printf_common+0x26>
 800359e:	3301      	adds	r3, #1
 80035a0:	6033      	str	r3, [r6, #0]
 80035a2:	6823      	ldr	r3, [r4, #0]
 80035a4:	0699      	lsls	r1, r3, #26
 80035a6:	bf42      	ittt	mi
 80035a8:	6833      	ldrmi	r3, [r6, #0]
 80035aa:	3302      	addmi	r3, #2
 80035ac:	6033      	strmi	r3, [r6, #0]
 80035ae:	6825      	ldr	r5, [r4, #0]
 80035b0:	f015 0506 	ands.w	r5, r5, #6
 80035b4:	d106      	bne.n	80035c4 <_printf_common+0x48>
 80035b6:	f104 0a19 	add.w	sl, r4, #25
 80035ba:	68e3      	ldr	r3, [r4, #12]
 80035bc:	6832      	ldr	r2, [r6, #0]
 80035be:	1a9b      	subs	r3, r3, r2
 80035c0:	42ab      	cmp	r3, r5
 80035c2:	dc28      	bgt.n	8003616 <_printf_common+0x9a>
 80035c4:	f894 2043 	ldrb.w	r2, [r4, #67]	; 0x43
 80035c8:	1e13      	subs	r3, r2, #0
 80035ca:	6822      	ldr	r2, [r4, #0]
 80035cc:	bf18      	it	ne
 80035ce:	2301      	movne	r3, #1
 80035d0:	0692      	lsls	r2, r2, #26
 80035d2:	d42d      	bmi.n	8003630 <_printf_common+0xb4>
 80035d4:	4649      	mov	r1, r9
 80035d6:	4638      	mov	r0, r7
 80035d8:	f104 0243 	add.w	r2, r4, #67	; 0x43
 80035dc:	47c0      	blx	r8
 80035de:	3001      	adds	r0, #1
 80035e0:	d020      	beq.n	8003624 <_printf_common+0xa8>
 80035e2:	6823      	ldr	r3, [r4, #0]
 80035e4:	68e5      	ldr	r5, [r4, #12]
 80035e6:	f003 0306 	and.w	r3, r3, #6
 80035ea:	2b04      	cmp	r3, #4
 80035ec:	bf18      	it	ne
 80035ee:	2500      	movne	r5, #0
 80035f0:	6832      	ldr	r2, [r6, #0]
 80035f2:	f04f 0600 	mov.w	r6, #0
 80035f6:	68a3      	ldr	r3, [r4, #8]
 80035f8:	bf08      	it	eq
 80035fa:	1aad      	subeq	r5, r5, r2
 80035fc:	6922      	ldr	r2, [r4, #16]
 80035fe:	bf08      	it	eq
 8003600:	ea25 75e5 	biceq.w	r5, r5, r5, asr #31
 8003604:	4293      	cmp	r3, r2
 8003606:	bfc4      	itt	gt
 8003608:	1a9b      	subgt	r3, r3, r2
 800360a:	18ed      	addgt	r5, r5, r3
 800360c:	341a      	adds	r4, #26
 800360e:	42b5      	cmp	r5, r6
 8003610:	d11a      	bne.n	8003648 <_printf_common+0xcc>
 8003612:	2000      	movs	r0, #0
 8003614:	e008      	b.n	8003628 <_printf_common+0xac>
 8003616:	2301      	movs	r3, #1
 8003618:	4652      	mov	r2, sl
 800361a:	4649      	mov	r1, r9
 800361c:	4638      	mov	r0, r7
 800361e:	47c0      	blx	r8
 8003620:	3001      	adds	r0, #1
 8003622:	d103      	bne.n	800362c <_printf_common+0xb0>
 8003624:	f04f 30ff 	mov.w	r0, #4294967295
 8003628:	e8bd 87f0 	ldmia.w	sp!, {r4, r5, r6, r7, r8, r9, sl, pc}
 800362c:	3501      	adds	r5, #1
 800362e:	e7c4      	b.n	80035ba <_printf_common+0x3e>
 8003630:	2030      	movs	r0, #48	; 0x30
 8003632:	18e1      	adds	r1, r4, r3
 8003634:	f881 0043 	strb.w	r0, [r1, #67]	; 0x43
 8003638:	1c5a      	adds	r2, r3, #1
 800363a:	f894 1045 	ldrb.w	r1, [r4, #69]	; 0x45
 800363e:	4422      	add	r2, r4
 8003640:	3302      	adds	r3, #2
 8003642:	f882 1043 	strb.w	r1, [r2, #67]	; 0x43
 8003646:	e7c5      	b.n	80035d4 <_printf_common+0x58>
 8003648:	2301      	movs	r3, #1
 800364a:	4622      	mov	r2, r4
 800364c:	4649      	mov	r1, r9
 800364e:	4638      	mov	r0, r7
 8003650:	47c0      	blx	r8
 8003652:	3001      	adds	r0, #1
 8003654:	d0e6      	beq.n	8003624 <_printf_common+0xa8>
 8003656:	3601      	adds	r6, #1
 8003658:	e7d9      	b.n	800360e <_printf_common+0x92>
	...

0800365c <_printf_i>:
 800365c:	e92d 47ff 	stmdb	sp!, {r0, r1, r2, r3, r4, r5, r6, r7, r8, r9, sl, lr}
 8003660:	460c      	mov	r4, r1
 8003662:	7e27      	ldrb	r7, [r4, #24]
 8003664:	4691      	mov	r9, r2
 8003666:	2f78      	cmp	r7, #120	; 0x78
 8003668:	4680      	mov	r8, r0
 800366a:	469a      	mov	sl, r3
 800366c:	990c      	ldr	r1, [sp, #48]	; 0x30
 800366e:	f104 0243 	add.w	r2, r4, #67	; 0x43
 8003672:	d807      	bhi.n	8003684 <_printf_i+0x28>
 8003674:	2f62      	cmp	r7, #98	; 0x62
 8003676:	d80a      	bhi.n	800368e <_printf_i+0x32>
 8003678:	2f00      	cmp	r7, #0
 800367a:	f000 80d9 	beq.w	8003830 <_printf_i+0x1d4>
 800367e:	2f58      	cmp	r7, #88	; 0x58
 8003680:	f000 80a4 	beq.w	80037cc <_printf_i+0x170>
 8003684:	f104 0642 	add.w	r6, r4, #66	; 0x42
 8003688:	f884 7042 	strb.w	r7, [r4, #66]	; 0x42
 800368c:	e03a      	b.n	8003704 <_printf_i+0xa8>
 800368e:	f1a7 0363 	sub.w	r3, r7, #99	; 0x63
 8003692:	2b15      	cmp	r3, #21
 8003694:	d8f6      	bhi.n	8003684 <_printf_i+0x28>
 8003696:	a001      	add	r0, pc, #4	; (adr r0, 800369c <_printf_i+0x40>)
 8003698:	f850 f023 	ldr.w	pc, [r0, r3, lsl #2]
 800369c:	080036f5 	.word	0x080036f5
 80036a0:	08003709 	.word	0x08003709
 80036a4:	08003685 	.word	0x08003685
 80036a8:	08003685 	.word	0x08003685
 80036ac:	08003685 	.word	0x08003685
 80036b0:	08003685 	.word	0x08003685
 80036b4:	08003709 	.word	0x08003709
 80036b8:	08003685 	.word	0x08003685
 80036bc:	08003685 	.word	0x08003685
 80036c0:	08003685 	.word	0x08003685
 80036c4:	08003685 	.word	0x08003685
 80036c8:	08003817 	.word	0x08003817
 80036cc:	08003739 	.word	0x08003739
 80036d0:	080037f9 	.word	0x080037f9
 80036d4:	08003685 	.word	0x08003685
 80036d8:	08003685 	.word	0x08003685
 80036dc:	08003839 	.word	0x08003839
 80036e0:	08003685 	.word	0x08003685
 80036e4:	08003739 	.word	0x08003739
 80036e8:	08003685 	.word	0x08003685
 80036ec:	08003685 	.word	0x08003685
 80036f0:	08003801 	.word	0x08003801
 80036f4:	680b      	ldr	r3, [r1, #0]
 80036f6:	f104 0642 	add.w	r6, r4, #66	; 0x42
 80036fa:	1d1a      	adds	r2, r3, #4
 80036fc:	681b      	ldr	r3, [r3, #0]
 80036fe:	600a      	str	r2, [r1, #0]
 8003700:	f884 3042 	strb.w	r3, [r4, #66]	; 0x42
 8003704:	2301      	movs	r3, #1
 8003706:	e0a4      	b.n	8003852 <_printf_i+0x1f6>
 8003708:	6825      	ldr	r5, [r4, #0]
 800370a:	6808      	ldr	r0, [r1, #0]
 800370c:	062e      	lsls	r6, r5, #24
 800370e:	f100 0304 	add.w	r3, r0, #4
 8003712:	d50a      	bpl.n	800372a <_printf_i+0xce>
 8003714:	6805      	ldr	r5, [r0, #0]
 8003716:	600b      	str	r3, [r1, #0]
 8003718:	2d00      	cmp	r5, #0
 800371a:	da03      	bge.n	8003724 <_printf_i+0xc8>
 800371c:	232d      	movs	r3, #45	; 0x2d
 800371e:	426d      	negs	r5, r5
 8003720:	f884 3043 	strb.w	r3, [r4, #67]	; 0x43
 8003724:	230a      	movs	r3, #10
 8003726:	485e      	ldr	r0, [pc, #376]	; (80038a0 <_printf_i+0x244>)
 8003728:	e019      	b.n	800375e <_printf_i+0x102>
 800372a:	f015 0f40 	tst.w	r5, #64	; 0x40
 800372e:	6805      	ldr	r5, [r0, #0]
 8003730:	600b      	str	r3, [r1, #0]
 8003732:	bf18      	it	ne
 8003734:	b22d      	sxthne	r5, r5
 8003736:	e7ef      	b.n	8003718 <_printf_i+0xbc>
 8003738:	680b      	ldr	r3, [r1, #0]
 800373a:	6825      	ldr	r5, [r4, #0]
 800373c:	1d18      	adds	r0, r3, #4
 800373e:	6008      	str	r0, [r1, #0]
 8003740:	0628      	lsls	r0, r5, #24
 8003742:	d501      	bpl.n	8003748 <_printf_i+0xec>
 8003744:	681d      	ldr	r5, [r3, #0]
 8003746:	e002      	b.n	800374e <_printf_i+0xf2>
 8003748:	0669      	lsls	r1, r5, #25
 800374a:	d5fb      	bpl.n	8003744 <_printf_i+0xe8>
 800374c:	881d      	ldrh	r5, [r3, #0]
 800374e:	2f6f      	cmp	r7, #111	; 0x6f
 8003750:	bf0c      	ite	eq
 8003752:	2308      	moveq	r3, #8
 8003754:	230a      	movne	r3, #10
 8003756:	4852      	ldr	r0, [pc, #328]	; (80038a0 <_printf_i+0x244>)
 8003758:	2100      	movs	r1, #0
 800375a:	f884 1043 	strb.w	r1, [r4, #67]	; 0x43
 800375e:	6866      	ldr	r6, [r4, #4]
 8003760:	2e00      	cmp	r6, #0
 8003762:	bfa8      	it	ge
 8003764:	6821      	ldrge	r1, [r4, #0]
 8003766:	60a6      	str	r6, [r4, #8]
 8003768:	bfa4      	itt	ge
 800376a:	f021 0104 	bicge.w	r1, r1, #4
 800376e:	6021      	strge	r1, [r4, #0]
 8003770:	b90d      	cbnz	r5, 8003776 <_printf_i+0x11a>
 8003772:	2e00      	cmp	r6, #0
 8003774:	d04d      	beq.n	8003812 <_printf_i+0x1b6>
 8003776:	4616      	mov	r6, r2
 8003778:	fbb5 f1f3 	udiv	r1, r5, r3
 800377c:	fb03 5711 	mls	r7, r3, r1, r5
 8003780:	5dc7      	ldrb	r7, [r0, r7]
 8003782:	f806 7d01 	strb.w	r7, [r6, #-1]!
 8003786:	462f      	mov	r7, r5
 8003788:	42bb      	cmp	r3, r7
 800378a:	460d      	mov	r5, r1
 800378c:	d9f4      	bls.n	8003778 <_printf_i+0x11c>
 800378e:	2b08      	cmp	r3, #8
 8003790:	d10b      	bne.n	80037aa <_printf_i+0x14e>
 8003792:	6823      	ldr	r3, [r4, #0]
 8003794:	07df      	lsls	r7, r3, #31
 8003796:	d508      	bpl.n	80037aa <_printf_i+0x14e>
 8003798:	6923      	ldr	r3, [r4, #16]
 800379a:	6861      	ldr	r1, [r4, #4]
 800379c:	4299      	cmp	r1, r3
 800379e:	bfde      	ittt	le
 80037a0:	2330      	movle	r3, #48	; 0x30
 80037a2:	f806 3c01 	strble.w	r3, [r6, #-1]
 80037a6:	f106 36ff 	addle.w	r6, r6, #4294967295
 80037aa:	1b92      	subs	r2, r2, r6
 80037ac:	6122      	str	r2, [r4, #16]
 80037ae:	464b      	mov	r3, r9
 80037b0:	4621      	mov	r1, r4
 80037b2:	4640      	mov	r0, r8
 80037b4:	f8cd a000 	str.w	sl, [sp]
 80037b8:	aa03      	add	r2, sp, #12
 80037ba:	f7ff fedf 	bl	800357c <_printf_common>
 80037be:	3001      	adds	r0, #1
 80037c0:	d14c      	bne.n	800385c <_printf_i+0x200>
 80037c2:	f04f 30ff 	mov.w	r0, #4294967295
 80037c6:	b004      	add	sp, #16
 80037c8:	e8bd 87f0 	ldmia.w	sp!, {r4, r5, r6, r7, r8, r9, sl, pc}
 80037cc:	4834      	ldr	r0, [pc, #208]	; (80038a0 <_printf_i+0x244>)
 80037ce:	f884 7045 	strb.w	r7, [r4, #69]	; 0x45
 80037d2:	680e      	ldr	r6, [r1, #0]
 80037d4:	6823      	ldr	r3, [r4, #0]
 80037d6:	f856 5b04 	ldr.w	r5, [r6], #4
 80037da:	061f      	lsls	r7, r3, #24
 80037dc:	600e      	str	r6, [r1, #0]
 80037de:	d514      	bpl.n	800380a <_printf_i+0x1ae>
 80037e0:	07d9      	lsls	r1, r3, #31
 80037e2:	bf44      	itt	mi
 80037e4:	f043 0320 	orrmi.w	r3, r3, #32
 80037e8:	6023      	strmi	r3, [r4, #0]
 80037ea:	b91d      	cbnz	r5, 80037f4 <_printf_i+0x198>
 80037ec:	6823      	ldr	r3, [r4, #0]
 80037ee:	f023 0320 	bic.w	r3, r3, #32
 80037f2:	6023      	str	r3, [r4, #0]
 80037f4:	2310      	movs	r3, #16
 80037f6:	e7af      	b.n	8003758 <_printf_i+0xfc>
 80037f8:	6823      	ldr	r3, [r4, #0]
 80037fa:	f043 0320 	orr.w	r3, r3, #32
 80037fe:	6023      	str	r3, [r4, #0]
 8003800:	2378      	movs	r3, #120	; 0x78
 8003802:	4828      	ldr	r0, [pc, #160]	; (80038a4 <_printf_i+0x248>)
 8003804:	f884 3045 	strb.w	r3, [r4, #69]	; 0x45
 8003808:	e7e3      	b.n	80037d2 <_printf_i+0x176>
 800380a:	065e      	lsls	r6, r3, #25
 800380c:	bf48      	it	mi
 800380e:	b2ad      	uxthmi	r5, r5
 8003810:	e7e6      	b.n	80037e0 <_printf_i+0x184>
 8003812:	4616      	mov	r6, r2
 8003814:	e7bb      	b.n	800378e <_printf_i+0x132>
 8003816:	680b      	ldr	r3, [r1, #0]
 8003818:	6826      	ldr	r6, [r4, #0]
 800381a:	1d1d      	adds	r5, r3, #4
 800381c:	6960      	ldr	r0, [r4, #20]
 800381e:	600d      	str	r5, [r1, #0]
 8003820:	0635      	lsls	r5, r6, #24
 8003822:	681b      	ldr	r3, [r3, #0]
 8003824:	d501      	bpl.n	800382a <_printf_i+0x1ce>
 8003826:	6018      	str	r0, [r3, #0]
 8003828:	e002      	b.n	8003830 <_printf_i+0x1d4>
 800382a:	0671      	lsls	r1, r6, #25
 800382c:	d5fb      	bpl.n	8003826 <_printf_i+0x1ca>
 800382e:	8018      	strh	r0, [r3, #0]
 8003830:	2300      	movs	r3, #0
 8003832:	4616      	mov	r6, r2
 8003834:	6123      	str	r3, [r4, #16]
 8003836:	e7ba      	b.n	80037ae <_printf_i+0x152>
 8003838:	680b      	ldr	r3, [r1, #0]
 800383a:	1d1a      	adds	r2, r3, #4
 800383c:	600a      	str	r2, [r1, #0]
 800383e:	681e      	ldr	r6, [r3, #0]
 8003840:	2100      	movs	r1, #0
 8003842:	4630      	mov	r0, r6
 8003844:	6862      	ldr	r2, [r4, #4]
 8003846:	f000 fb25 	bl	8003e94 <memchr>
 800384a:	b108      	cbz	r0, 8003850 <_printf_i+0x1f4>
 800384c:	1b80      	subs	r0, r0, r6
 800384e:	6060      	str	r0, [r4, #4]
 8003850:	6863      	ldr	r3, [r4, #4]
 8003852:	6123      	str	r3, [r4, #16]
 8003854:	2300      	movs	r3, #0
 8003856:	f884 3043 	strb.w	r3, [r4, #67]	; 0x43
 800385a:	e7a8      	b.n	80037ae <_printf_i+0x152>
 800385c:	4632      	mov	r2, r6
 800385e:	4649      	mov	r1, r9
 8003860:	4640      	mov	r0, r8
 8003862:	6923      	ldr	r3, [r4, #16]
 8003864:	47d0      	blx	sl
 8003866:	3001      	adds	r0, #1
 8003868:	d0ab      	beq.n	80037c2 <_printf_i+0x166>
 800386a:	6823      	ldr	r3, [r4, #0]
 800386c:	079b      	lsls	r3, r3, #30
 800386e:	d413      	bmi.n	8003898 <_printf_i+0x23c>
 8003870:	68e0      	ldr	r0, [r4, #12]
 8003872:	9b03      	ldr	r3, [sp, #12]
 8003874:	4298      	cmp	r0, r3
 8003876:	bfb8      	it	lt
 8003878:	4618      	movlt	r0, r3
 800387a:	e7a4      	b.n	80037c6 <_printf_i+0x16a>
 800387c:	2301      	movs	r3, #1
 800387e:	4632      	mov	r2, r6
 8003880:	4649      	mov	r1, r9
 8003882:	4640      	mov	r0, r8
 8003884:	47d0      	blx	sl
 8003886:	3001      	adds	r0, #1
 8003888:	d09b      	beq.n	80037c2 <_printf_i+0x166>
 800388a:	3501      	adds	r5, #1
 800388c:	68e3      	ldr	r3, [r4, #12]
 800388e:	9903      	ldr	r1, [sp, #12]
 8003890:	1a5b      	subs	r3, r3, r1
 8003892:	42ab      	cmp	r3, r5
 8003894:	dcf2      	bgt.n	800387c <_printf_i+0x220>
 8003896:	e7eb      	b.n	8003870 <_printf_i+0x214>
 8003898:	2500      	movs	r5, #0
 800389a:	f104 0619 	add.w	r6, r4, #25
 800389e:	e7f5      	b.n	800388c <_printf_i+0x230>
 80038a0:	0800458b 	.word	0x0800458b
 80038a4:	0800459c 	.word	0x0800459c

080038a8 <_sbrk_r>:
 80038a8:	b538      	push	{r3, r4, r5, lr}
 80038aa:	2300      	movs	r3, #0
 80038ac:	4d05      	ldr	r5, [pc, #20]	; (80038c4 <_sbrk_r+0x1c>)
 80038ae:	4604      	mov	r4, r0
 80038b0:	4608      	mov	r0, r1
 80038b2:	602b      	str	r3, [r5, #0]
 80038b4:	f000 fc30 	bl	8004118 <_sbrk>
 80038b8:	1c43      	adds	r3, r0, #1
 80038ba:	d102      	bne.n	80038c2 <_sbrk_r+0x1a>
 80038bc:	682b      	ldr	r3, [r5, #0]
 80038be:	b103      	cbz	r3, 80038c2 <_sbrk_r+0x1a>
 80038c0:	6023      	str	r3, [r4, #0]
 80038c2:	bd38      	pop	{r3, r4, r5, pc}
 80038c4:	200002b4 	.word	0x200002b4

080038c8 <__swbuf_r>:
 80038c8:	b5f8      	push	{r3, r4, r5, r6, r7, lr}
 80038ca:	460e      	mov	r6, r1
 80038cc:	4614      	mov	r4, r2
 80038ce:	4605      	mov	r5, r0
 80038d0:	b118      	cbz	r0, 80038da <__swbuf_r+0x12>
 80038d2:	6983      	ldr	r3, [r0, #24]
 80038d4:	b90b      	cbnz	r3, 80038da <__swbuf_r+0x12>
 80038d6:	f000 f9d9 	bl	8003c8c <__sinit>
 80038da:	4b21      	ldr	r3, [pc, #132]	; (8003960 <__swbuf_r+0x98>)
 80038dc:	429c      	cmp	r4, r3
 80038de:	d12b      	bne.n	8003938 <__swbuf_r+0x70>
 80038e0:	686c      	ldr	r4, [r5, #4]
 80038e2:	69a3      	ldr	r3, [r4, #24]
 80038e4:	60a3      	str	r3, [r4, #8]
 80038e6:	89a3      	ldrh	r3, [r4, #12]
 80038e8:	071a      	lsls	r2, r3, #28
 80038ea:	d52f      	bpl.n	800394c <__swbuf_r+0x84>
 80038ec:	6923      	ldr	r3, [r4, #16]
 80038ee:	b36b      	cbz	r3, 800394c <__swbuf_r+0x84>
 80038f0:	6923      	ldr	r3, [r4, #16]
 80038f2:	6820      	ldr	r0, [r4, #0]
 80038f4:	b2f6      	uxtb	r6, r6
 80038f6:	1ac0      	subs	r0, r0, r3
 80038f8:	6963      	ldr	r3, [r4, #20]
 80038fa:	4637      	mov	r7, r6
 80038fc:	4283      	cmp	r3, r0
 80038fe:	dc04      	bgt.n	800390a <__swbuf_r+0x42>
 8003900:	4621      	mov	r1, r4
 8003902:	4628      	mov	r0, r5
 8003904:	f000 f92e 	bl	8003b64 <_fflush_r>
 8003908:	bb30      	cbnz	r0, 8003958 <__swbuf_r+0x90>
 800390a:	68a3      	ldr	r3, [r4, #8]
 800390c:	3001      	adds	r0, #1
 800390e:	3b01      	subs	r3, #1
 8003910:	60a3      	str	r3, [r4, #8]
 8003912:	6823      	ldr	r3, [r4, #0]
 8003914:	1c5a      	adds	r2, r3, #1
 8003916:	6022      	str	r2, [r4, #0]
 8003918:	701e      	strb	r6, [r3, #0]
 800391a:	6963      	ldr	r3, [r4, #20]
 800391c:	4283      	cmp	r3, r0
 800391e:	d004      	beq.n	800392a <__swbuf_r+0x62>
 8003920:	89a3      	ldrh	r3, [r4, #12]
 8003922:	07db      	lsls	r3, r3, #31
 8003924:	d506      	bpl.n	8003934 <__swbuf_r+0x6c>
 8003926:	2e0a      	cmp	r6, #10
 8003928:	d104      	bne.n	8003934 <__swbuf_r+0x6c>
 800392a:	4621      	mov	r1, r4
 800392c:	4628      	mov	r0, r5
 800392e:	f000 f919 	bl	8003b64 <_fflush_r>
 8003932:	b988      	cbnz	r0, 8003958 <__swbuf_r+0x90>
 8003934:	4638      	mov	r0, r7
 8003936:	bdf8      	pop	{r3, r4, r5, r6, r7, pc}
 8003938:	4b0a      	ldr	r3, [pc, #40]	; (8003964 <__swbuf_r+0x9c>)
 800393a:	429c      	cmp	r4, r3
 800393c:	d101      	bne.n	8003942 <__swbuf_r+0x7a>
 800393e:	68ac      	ldr	r4, [r5, #8]
 8003940:	e7cf      	b.n	80038e2 <__swbuf_r+0x1a>
 8003942:	4b09      	ldr	r3, [pc, #36]	; (8003968 <__swbuf_r+0xa0>)
 8003944:	429c      	cmp	r4, r3
 8003946:	bf08      	it	eq
 8003948:	68ec      	ldreq	r4, [r5, #12]
 800394a:	e7ca      	b.n	80038e2 <__swbuf_r+0x1a>
 800394c:	4621      	mov	r1, r4
 800394e:	4628      	mov	r0, r5
 8003950:	f000 f80c 	bl	800396c <__swsetup_r>
 8003954:	2800      	cmp	r0, #0
 8003956:	d0cb      	beq.n	80038f0 <__swbuf_r+0x28>
 8003958:	f04f 37ff 	mov.w	r7, #4294967295
 800395c:	e7ea      	b.n	8003934 <__swbuf_r+0x6c>
 800395e:	bf00      	nop
 8003960:	080045d0 	.word	0x080045d0
 8003964:	080045f0 	.word	0x080045f0
 8003968:	080045b0 	.word	0x080045b0

0800396c <__swsetup_r>:
 800396c:	4b32      	ldr	r3, [pc, #200]	; (8003a38 <__swsetup_r+0xcc>)
 800396e:	b570      	push	{r4, r5, r6, lr}
 8003970:	681d      	ldr	r5, [r3, #0]
 8003972:	4606      	mov	r6, r0
 8003974:	460c      	mov	r4, r1
 8003976:	b125      	cbz	r5, 8003982 <__swsetup_r+0x16>
 8003978:	69ab      	ldr	r3, [r5, #24]
 800397a:	b913      	cbnz	r3, 8003982 <__swsetup_r+0x16>
 800397c:	4628      	mov	r0, r5
 800397e:	f000 f985 	bl	8003c8c <__sinit>
 8003982:	4b2e      	ldr	r3, [pc, #184]	; (8003a3c <__swsetup_r+0xd0>)
 8003984:	429c      	cmp	r4, r3
 8003986:	d10f      	bne.n	80039a8 <__swsetup_r+0x3c>
 8003988:	686c      	ldr	r4, [r5, #4]
 800398a:	89a3      	ldrh	r3, [r4, #12]
 800398c:	f9b4 200c 	ldrsh.w	r2, [r4, #12]
 8003990:	0719      	lsls	r1, r3, #28
 8003992:	d42c      	bmi.n	80039ee <__swsetup_r+0x82>
 8003994:	06dd      	lsls	r5, r3, #27
 8003996:	d411      	bmi.n	80039bc <__swsetup_r+0x50>
 8003998:	2309      	movs	r3, #9
 800399a:	6033      	str	r3, [r6, #0]
 800399c:	f042 0340 	orr.w	r3, r2, #64	; 0x40
 80039a0:	f04f 30ff 	mov.w	r0, #4294967295
 80039a4:	81a3      	strh	r3, [r4, #12]
 80039a6:	e03e      	b.n	8003a26 <__swsetup_r+0xba>
 80039a8:	4b25      	ldr	r3, [pc, #148]	; (8003a40 <__swsetup_r+0xd4>)
 80039aa:	429c      	cmp	r4, r3
 80039ac:	d101      	bne.n	80039b2 <__swsetup_r+0x46>
 80039ae:	68ac      	ldr	r4, [r5, #8]
 80039b0:	e7eb      	b.n	800398a <__swsetup_r+0x1e>
 80039b2:	4b24      	ldr	r3, [pc, #144]	; (8003a44 <__swsetup_r+0xd8>)
 80039b4:	429c      	cmp	r4, r3
 80039b6:	bf08      	it	eq
 80039b8:	68ec      	ldreq	r4, [r5, #12]
 80039ba:	e7e6      	b.n	800398a <__swsetup_r+0x1e>
 80039bc:	0758      	lsls	r0, r3, #29
 80039be:	d512      	bpl.n	80039e6 <__swsetup_r+0x7a>
 80039c0:	6b61      	ldr	r1, [r4, #52]	; 0x34
 80039c2:	b141      	cbz	r1, 80039d6 <__swsetup_r+0x6a>
 80039c4:	f104 0344 	add.w	r3, r4, #68	; 0x44
 80039c8:	4299      	cmp	r1, r3
 80039ca:	d002      	beq.n	80039d2 <__swsetup_r+0x66>
 80039cc:	4630      	mov	r0, r6
 80039ce:	f7ff fbd7 	bl	8003180 <_free_r>
 80039d2:	2300      	movs	r3, #0
 80039d4:	6363      	str	r3, [r4, #52]	; 0x34
 80039d6:	89a3      	ldrh	r3, [r4, #12]
 80039d8:	f023 0324 	bic.w	r3, r3, #36	; 0x24
 80039dc:	81a3      	strh	r3, [r4, #12]
 80039de:	2300      	movs	r3, #0
 80039e0:	6063      	str	r3, [r4, #4]
 80039e2:	6923      	ldr	r3, [r4, #16]
 80039e4:	6023      	str	r3, [r4, #0]
 80039e6:	89a3      	ldrh	r3, [r4, #12]
 80039e8:	f043 0308 	orr.w	r3, r3, #8
 80039ec:	81a3      	strh	r3, [r4, #12]
 80039ee:	6923      	ldr	r3, [r4, #16]
 80039f0:	b94b      	cbnz	r3, 8003a06 <__swsetup_r+0x9a>
 80039f2:	89a3      	ldrh	r3, [r4, #12]
 80039f4:	f403 7320 	and.w	r3, r3, #640	; 0x280
 80039f8:	f5b3 7f00 	cmp.w	r3, #512	; 0x200
 80039fc:	d003      	beq.n	8003a06 <__swsetup_r+0x9a>
 80039fe:	4621      	mov	r1, r4
 8003a00:	4630      	mov	r0, r6
 8003a02:	f000 fa07 	bl	8003e14 <__smakebuf_r>
 8003a06:	89a0      	ldrh	r0, [r4, #12]
 8003a08:	f9b4 200c 	ldrsh.w	r2, [r4, #12]
 8003a0c:	f010 0301 	ands.w	r3, r0, #1
 8003a10:	d00a      	beq.n	8003a28 <__swsetup_r+0xbc>
 8003a12:	2300      	movs	r3, #0
 8003a14:	60a3      	str	r3, [r4, #8]
 8003a16:	6963      	ldr	r3, [r4, #20]
 8003a18:	425b      	negs	r3, r3
 8003a1a:	61a3      	str	r3, [r4, #24]
 8003a1c:	6923      	ldr	r3, [r4, #16]
 8003a1e:	b943      	cbnz	r3, 8003a32 <__swsetup_r+0xc6>
 8003a20:	f010 0080 	ands.w	r0, r0, #128	; 0x80
 8003a24:	d1ba      	bne.n	800399c <__swsetup_r+0x30>
 8003a26:	bd70      	pop	{r4, r5, r6, pc}
 8003a28:	0781      	lsls	r1, r0, #30
 8003a2a:	bf58      	it	pl
 8003a2c:	6963      	ldrpl	r3, [r4, #20]
 8003a2e:	60a3      	str	r3, [r4, #8]
 8003a30:	e7f4      	b.n	8003a1c <__swsetup_r+0xb0>
 8003a32:	2000      	movs	r0, #0
 8003a34:	e7f7      	b.n	8003a26 <__swsetup_r+0xba>
 8003a36:	bf00      	nop
 8003a38:	20000074 	.word	0x20000074
 8003a3c:	080045d0 	.word	0x080045d0
 8003a40:	080045f0 	.word	0x080045f0
 8003a44:	080045b0 	.word	0x080045b0

08003a48 <abort>:
 8003a48:	2006      	movs	r0, #6
 8003a4a:	b508      	push	{r3, lr}
 8003a4c:	f000 fa64 	bl	8003f18 <raise>
 8003a50:	2001      	movs	r0, #1
 8003a52:	f000 fb77 	bl	8004144 <_exit>
	...

08003a58 <__sflush_r>:
 8003a58:	898a      	ldrh	r2, [r1, #12]
 8003a5a:	e92d 41f0 	stmdb	sp!, {r4, r5, r6, r7, r8, lr}
 8003a5e:	4605      	mov	r5, r0
 8003a60:	0710      	lsls	r0, r2, #28
 8003a62:	460c      	mov	r4, r1
 8003a64:	d458      	bmi.n	8003b18 <__sflush_r+0xc0>
 8003a66:	684b      	ldr	r3, [r1, #4]
 8003a68:	2b00      	cmp	r3, #0
 8003a6a:	dc05      	bgt.n	8003a78 <__sflush_r+0x20>
 8003a6c:	6c0b      	ldr	r3, [r1, #64]	; 0x40
 8003a6e:	2b00      	cmp	r3, #0
 8003a70:	dc02      	bgt.n	8003a78 <__sflush_r+0x20>
 8003a72:	2000      	movs	r0, #0
 8003a74:	e8bd 81f0 	ldmia.w	sp!, {r4, r5, r6, r7, r8, pc}
 8003a78:	6ae6      	ldr	r6, [r4, #44]	; 0x2c
 8003a7a:	2e00      	cmp	r6, #0
 8003a7c:	d0f9      	beq.n	8003a72 <__sflush_r+0x1a>
 8003a7e:	2300      	movs	r3, #0
 8003a80:	f412 5280 	ands.w	r2, r2, #4096	; 0x1000
 8003a84:	682f      	ldr	r7, [r5, #0]
 8003a86:	602b      	str	r3, [r5, #0]
 8003a88:	d032      	beq.n	8003af0 <__sflush_r+0x98>
 8003a8a:	6d60      	ldr	r0, [r4, #84]	; 0x54
 8003a8c:	89a3      	ldrh	r3, [r4, #12]
 8003a8e:	075a      	lsls	r2, r3, #29
 8003a90:	d505      	bpl.n	8003a9e <__sflush_r+0x46>
 8003a92:	6863      	ldr	r3, [r4, #4]
 8003a94:	1ac0      	subs	r0, r0, r3
 8003a96:	6b63      	ldr	r3, [r4, #52]	; 0x34
 8003a98:	b10b      	cbz	r3, 8003a9e <__sflush_r+0x46>
 8003a9a:	6c23      	ldr	r3, [r4, #64]	; 0x40
 8003a9c:	1ac0      	subs	r0, r0, r3
 8003a9e:	2300      	movs	r3, #0
 8003aa0:	4602      	mov	r2, r0
 8003aa2:	6ae6      	ldr	r6, [r4, #44]	; 0x2c
 8003aa4:	4628      	mov	r0, r5
 8003aa6:	6a21      	ldr	r1, [r4, #32]
 8003aa8:	47b0      	blx	r6
 8003aaa:	1c43      	adds	r3, r0, #1
 8003aac:	89a3      	ldrh	r3, [r4, #12]
 8003aae:	d106      	bne.n	8003abe <__sflush_r+0x66>
 8003ab0:	6829      	ldr	r1, [r5, #0]
 8003ab2:	291d      	cmp	r1, #29
 8003ab4:	d82c      	bhi.n	8003b10 <__sflush_r+0xb8>
 8003ab6:	4a2a      	ldr	r2, [pc, #168]	; (8003b60 <__sflush_r+0x108>)
 8003ab8:	40ca      	lsrs	r2, r1
 8003aba:	07d6      	lsls	r6, r2, #31
 8003abc:	d528      	bpl.n	8003b10 <__sflush_r+0xb8>
 8003abe:	2200      	movs	r2, #0
 8003ac0:	6062      	str	r2, [r4, #4]
 8003ac2:	6922      	ldr	r2, [r4, #16]
 8003ac4:	04d9      	lsls	r1, r3, #19
 8003ac6:	6022      	str	r2, [r4, #0]
 8003ac8:	d504      	bpl.n	8003ad4 <__sflush_r+0x7c>
 8003aca:	1c42      	adds	r2, r0, #1
 8003acc:	d101      	bne.n	8003ad2 <__sflush_r+0x7a>
 8003ace:	682b      	ldr	r3, [r5, #0]
 8003ad0:	b903      	cbnz	r3, 8003ad4 <__sflush_r+0x7c>
 8003ad2:	6560      	str	r0, [r4, #84]	; 0x54
 8003ad4:	6b61      	ldr	r1, [r4, #52]	; 0x34
 8003ad6:	602f      	str	r7, [r5, #0]
 8003ad8:	2900      	cmp	r1, #0
 8003ada:	d0ca      	beq.n	8003a72 <__sflush_r+0x1a>
 8003adc:	f104 0344 	add.w	r3, r4, #68	; 0x44
 8003ae0:	4299      	cmp	r1, r3
 8003ae2:	d002      	beq.n	8003aea <__sflush_r+0x92>
 8003ae4:	4628      	mov	r0, r5
 8003ae6:	f7ff fb4b 	bl	8003180 <_free_r>
 8003aea:	2000      	movs	r0, #0
 8003aec:	6360      	str	r0, [r4, #52]	; 0x34
 8003aee:	e7c1      	b.n	8003a74 <__sflush_r+0x1c>
 8003af0:	6a21      	ldr	r1, [r4, #32]
 8003af2:	2301      	movs	r3, #1
 8003af4:	4628      	mov	r0, r5
 8003af6:	47b0      	blx	r6
 8003af8:	1c41      	adds	r1, r0, #1
 8003afa:	d1c7      	bne.n	8003a8c <__sflush_r+0x34>
 8003afc:	682b      	ldr	r3, [r5, #0]
 8003afe:	2b00      	cmp	r3, #0
 8003b00:	d0c4      	beq.n	8003a8c <__sflush_r+0x34>
 8003b02:	2b1d      	cmp	r3, #29
 8003b04:	d001      	beq.n	8003b0a <__sflush_r+0xb2>
 8003b06:	2b16      	cmp	r3, #22
 8003b08:	d101      	bne.n	8003b0e <__sflush_r+0xb6>
 8003b0a:	602f      	str	r7, [r5, #0]
 8003b0c:	e7b1      	b.n	8003a72 <__sflush_r+0x1a>
 8003b0e:	89a3      	ldrh	r3, [r4, #12]
 8003b10:	f043 0340 	orr.w	r3, r3, #64	; 0x40
 8003b14:	81a3      	strh	r3, [r4, #12]
 8003b16:	e7ad      	b.n	8003a74 <__sflush_r+0x1c>
 8003b18:	690f      	ldr	r7, [r1, #16]
 8003b1a:	2f00      	cmp	r7, #0
 8003b1c:	d0a9      	beq.n	8003a72 <__sflush_r+0x1a>
 8003b1e:	0793      	lsls	r3, r2, #30
 8003b20:	bf18      	it	ne
 8003b22:	2300      	movne	r3, #0
 8003b24:	680e      	ldr	r6, [r1, #0]
 8003b26:	bf08      	it	eq
 8003b28:	694b      	ldreq	r3, [r1, #20]
 8003b2a:	eba6 0807 	sub.w	r8, r6, r7
 8003b2e:	600f      	str	r7, [r1, #0]
 8003b30:	608b      	str	r3, [r1, #8]
 8003b32:	f1b8 0f00 	cmp.w	r8, #0
 8003b36:	dd9c      	ble.n	8003a72 <__sflush_r+0x1a>
 8003b38:	4643      	mov	r3, r8
 8003b3a:	463a      	mov	r2, r7
 8003b3c:	4628      	mov	r0, r5
 8003b3e:	6a21      	ldr	r1, [r4, #32]
 8003b40:	6aa6      	ldr	r6, [r4, #40]	; 0x28
 8003b42:	47b0      	blx	r6
 8003b44:	2800      	cmp	r0, #0
 8003b46:	dc06      	bgt.n	8003b56 <__sflush_r+0xfe>
 8003b48:	89a3      	ldrh	r3, [r4, #12]
 8003b4a:	f04f 30ff 	mov.w	r0, #4294967295
 8003b4e:	f043 0340 	orr.w	r3, r3, #64	; 0x40
 8003b52:	81a3      	strh	r3, [r4, #12]
 8003b54:	e78e      	b.n	8003a74 <__sflush_r+0x1c>
 8003b56:	4407      	add	r7, r0
 8003b58:	eba8 0800 	sub.w	r8, r8, r0
 8003b5c:	e7e9      	b.n	8003b32 <__sflush_r+0xda>
 8003b5e:	bf00      	nop
 8003b60:	20400001 	.word	0x20400001

08003b64 <_fflush_r>:
 8003b64:	b538      	push	{r3, r4, r5, lr}
 8003b66:	690b      	ldr	r3, [r1, #16]
 8003b68:	4605      	mov	r5, r0
 8003b6a:	460c      	mov	r4, r1
 8003b6c:	b913      	cbnz	r3, 8003b74 <_fflush_r+0x10>
 8003b6e:	2500      	movs	r5, #0
 8003b70:	4628      	mov	r0, r5
 8003b72:	bd38      	pop	{r3, r4, r5, pc}
 8003b74:	b118      	cbz	r0, 8003b7e <_fflush_r+0x1a>
 8003b76:	6983      	ldr	r3, [r0, #24]
 8003b78:	b90b      	cbnz	r3, 8003b7e <_fflush_r+0x1a>
 8003b7a:	f000 f887 	bl	8003c8c <__sinit>
 8003b7e:	4b14      	ldr	r3, [pc, #80]	; (8003bd0 <_fflush_r+0x6c>)
 8003b80:	429c      	cmp	r4, r3
 8003b82:	d11b      	bne.n	8003bbc <_fflush_r+0x58>
 8003b84:	686c      	ldr	r4, [r5, #4]
 8003b86:	f9b4 300c 	ldrsh.w	r3, [r4, #12]
 8003b8a:	2b00      	cmp	r3, #0
 8003b8c:	d0ef      	beq.n	8003b6e <_fflush_r+0xa>
 8003b8e:	6e62      	ldr	r2, [r4, #100]	; 0x64
 8003b90:	07d0      	lsls	r0, r2, #31
 8003b92:	d404      	bmi.n	8003b9e <_fflush_r+0x3a>
 8003b94:	0599      	lsls	r1, r3, #22
 8003b96:	d402      	bmi.n	8003b9e <_fflush_r+0x3a>
 8003b98:	6da0      	ldr	r0, [r4, #88]	; 0x58
 8003b9a:	f000 f915 	bl	8003dc8 <__retarget_lock_acquire_recursive>
 8003b9e:	4628      	mov	r0, r5
 8003ba0:	4621      	mov	r1, r4
 8003ba2:	f7ff ff59 	bl	8003a58 <__sflush_r>
 8003ba6:	6e63      	ldr	r3, [r4, #100]	; 0x64
 8003ba8:	4605      	mov	r5, r0
 8003baa:	07da      	lsls	r2, r3, #31
 8003bac:	d4e0      	bmi.n	8003b70 <_fflush_r+0xc>
 8003bae:	89a3      	ldrh	r3, [r4, #12]
 8003bb0:	059b      	lsls	r3, r3, #22
 8003bb2:	d4dd      	bmi.n	8003b70 <_fflush_r+0xc>
 8003bb4:	6da0      	ldr	r0, [r4, #88]	; 0x58
 8003bb6:	f000 f908 	bl	8003dca <__retarget_lock_release_recursive>
 8003bba:	e7d9      	b.n	8003b70 <_fflush_r+0xc>
 8003bbc:	4b05      	ldr	r3, [pc, #20]	; (8003bd4 <_fflush_r+0x70>)
 8003bbe:	429c      	cmp	r4, r3
 8003bc0:	d101      	bne.n	8003bc6 <_fflush_r+0x62>
 8003bc2:	68ac      	ldr	r4, [r5, #8]
 8003bc4:	e7df      	b.n	8003b86 <_fflush_r+0x22>
 8003bc6:	4b04      	ldr	r3, [pc, #16]	; (8003bd8 <_fflush_r+0x74>)
 8003bc8:	429c      	cmp	r4, r3
 8003bca:	bf08      	it	eq
 8003bcc:	68ec      	ldreq	r4, [r5, #12]
 8003bce:	e7da      	b.n	8003b86 <_fflush_r+0x22>
 8003bd0:	080045d0 	.word	0x080045d0
 8003bd4:	080045f0 	.word	0x080045f0
 8003bd8:	080045b0 	.word	0x080045b0

08003bdc <std>:
 8003bdc:	2300      	movs	r3, #0
 8003bde:	b510      	push	{r4, lr}
 8003be0:	4604      	mov	r4, r0
 8003be2:	e9c0 3300 	strd	r3, r3, [r0]
 8003be6:	e9c0 3304 	strd	r3, r3, [r0, #16]
 8003bea:	6083      	str	r3, [r0, #8]
 8003bec:	8181      	strh	r1, [r0, #12]
 8003bee:	6643      	str	r3, [r0, #100]	; 0x64
 8003bf0:	81c2      	strh	r2, [r0, #14]
 8003bf2:	6183      	str	r3, [r0, #24]
 8003bf4:	4619      	mov	r1, r3
 8003bf6:	2208      	movs	r2, #8
 8003bf8:	305c      	adds	r0, #92	; 0x5c
 8003bfa:	f7ff fa13 	bl	8003024 <memset>
 8003bfe:	4b05      	ldr	r3, [pc, #20]	; (8003c14 <std+0x38>)
 8003c00:	6224      	str	r4, [r4, #32]
 8003c02:	6263      	str	r3, [r4, #36]	; 0x24
 8003c04:	4b04      	ldr	r3, [pc, #16]	; (8003c18 <std+0x3c>)
 8003c06:	62a3      	str	r3, [r4, #40]	; 0x28
 8003c08:	4b04      	ldr	r3, [pc, #16]	; (8003c1c <std+0x40>)
 8003c0a:	62e3      	str	r3, [r4, #44]	; 0x2c
 8003c0c:	4b04      	ldr	r3, [pc, #16]	; (8003c20 <std+0x44>)
 8003c0e:	6323      	str	r3, [r4, #48]	; 0x30
 8003c10:	bd10      	pop	{r4, pc}
 8003c12:	bf00      	nop
 8003c14:	08003f51 	.word	0x08003f51
 8003c18:	08003f73 	.word	0x08003f73
 8003c1c:	08003fab 	.word	0x08003fab
 8003c20:	08003fcf 	.word	0x08003fcf

08003c24 <_cleanup_r>:
 8003c24:	4901      	ldr	r1, [pc, #4]	; (8003c2c <_cleanup_r+0x8>)
 8003c26:	f000 b8af 	b.w	8003d88 <_fwalk_reent>
 8003c2a:	bf00      	nop
 8003c2c:	08003b65 	.word	0x08003b65

08003c30 <__sfmoreglue>:
 8003c30:	b570      	push	{r4, r5, r6, lr}
 8003c32:	2568      	movs	r5, #104	; 0x68
 8003c34:	1e4a      	subs	r2, r1, #1
 8003c36:	4355      	muls	r5, r2
 8003c38:	460e      	mov	r6, r1
 8003c3a:	f105 0174 	add.w	r1, r5, #116	; 0x74
 8003c3e:	f7ff faeb 	bl	8003218 <_malloc_r>
 8003c42:	4604      	mov	r4, r0
 8003c44:	b140      	cbz	r0, 8003c58 <__sfmoreglue+0x28>
 8003c46:	2100      	movs	r1, #0
 8003c48:	e9c0 1600 	strd	r1, r6, [r0]
 8003c4c:	300c      	adds	r0, #12
 8003c4e:	60a0      	str	r0, [r4, #8]
 8003c50:	f105 0268 	add.w	r2, r5, #104	; 0x68
 8003c54:	f7ff f9e6 	bl	8003024 <memset>
 8003c58:	4620      	mov	r0, r4
 8003c5a:	bd70      	pop	{r4, r5, r6, pc}

08003c5c <__sfp_lock_acquire>:
 8003c5c:	4801      	ldr	r0, [pc, #4]	; (8003c64 <__sfp_lock_acquire+0x8>)
 8003c5e:	f000 b8b3 	b.w	8003dc8 <__retarget_lock_acquire_recursive>
 8003c62:	bf00      	nop
 8003c64:	200002b0 	.word	0x200002b0

08003c68 <__sfp_lock_release>:
 8003c68:	4801      	ldr	r0, [pc, #4]	; (8003c70 <__sfp_lock_release+0x8>)
 8003c6a:	f000 b8ae 	b.w	8003dca <__retarget_lock_release_recursive>
 8003c6e:	bf00      	nop
 8003c70:	200002b0 	.word	0x200002b0

08003c74 <__sinit_lock_acquire>:
 8003c74:	4801      	ldr	r0, [pc, #4]	; (8003c7c <__sinit_lock_acquire+0x8>)
 8003c76:	f000 b8a7 	b.w	8003dc8 <__retarget_lock_acquire_recursive>
 8003c7a:	bf00      	nop
 8003c7c:	200002ab 	.word	0x200002ab

08003c80 <__sinit_lock_release>:
 8003c80:	4801      	ldr	r0, [pc, #4]	; (8003c88 <__sinit_lock_release+0x8>)
 8003c82:	f000 b8a2 	b.w	8003dca <__retarget_lock_release_recursive>
 8003c86:	bf00      	nop
 8003c88:	200002ab 	.word	0x200002ab

08003c8c <__sinit>:
 8003c8c:	b510      	push	{r4, lr}
 8003c8e:	4604      	mov	r4, r0
 8003c90:	f7ff fff0 	bl	8003c74 <__sinit_lock_acquire>
 8003c94:	69a3      	ldr	r3, [r4, #24]
 8003c96:	b11b      	cbz	r3, 8003ca0 <__sinit+0x14>
 8003c98:	e8bd 4010 	ldmia.w	sp!, {r4, lr}
 8003c9c:	f7ff bff0 	b.w	8003c80 <__sinit_lock_release>
 8003ca0:	e9c4 3312 	strd	r3, r3, [r4, #72]	; 0x48
 8003ca4:	6523      	str	r3, [r4, #80]	; 0x50
 8003ca6:	4b13      	ldr	r3, [pc, #76]	; (8003cf4 <__sinit+0x68>)
 8003ca8:	4a13      	ldr	r2, [pc, #76]	; (8003cf8 <__sinit+0x6c>)
 8003caa:	681b      	ldr	r3, [r3, #0]
 8003cac:	62a2      	str	r2, [r4, #40]	; 0x28
 8003cae:	42a3      	cmp	r3, r4
 8003cb0:	bf08      	it	eq
 8003cb2:	2301      	moveq	r3, #1
 8003cb4:	4620      	mov	r0, r4
 8003cb6:	bf08      	it	eq
 8003cb8:	61a3      	streq	r3, [r4, #24]
 8003cba:	f000 f81f 	bl	8003cfc <__sfp>
 8003cbe:	6060      	str	r0, [r4, #4]
 8003cc0:	4620      	mov	r0, r4
 8003cc2:	f000 f81b 	bl	8003cfc <__sfp>
 8003cc6:	60a0      	str	r0, [r4, #8]
 8003cc8:	4620      	mov	r0, r4
 8003cca:	f000 f817 	bl	8003cfc <__sfp>
 8003cce:	2200      	movs	r2, #0
 8003cd0:	2104      	movs	r1, #4
 8003cd2:	60e0      	str	r0, [r4, #12]
 8003cd4:	6860      	ldr	r0, [r4, #4]
 8003cd6:	f7ff ff81 	bl	8003bdc <std>
 8003cda:	2201      	movs	r2, #1
 8003cdc:	2109      	movs	r1, #9
 8003cde:	68a0      	ldr	r0, [r4, #8]
 8003ce0:	f7ff ff7c 	bl	8003bdc <std>
 8003ce4:	2202      	movs	r2, #2
 8003ce6:	2112      	movs	r1, #18
 8003ce8:	68e0      	ldr	r0, [r4, #12]
 8003cea:	f7ff ff77 	bl	8003bdc <std>
 8003cee:	2301      	movs	r3, #1
 8003cf0:	61a3      	str	r3, [r4, #24]
 8003cf2:	e7d1      	b.n	8003c98 <__sinit+0xc>
 8003cf4:	080044c4 	.word	0x080044c4
 8003cf8:	08003c25 	.word	0x08003c25

08003cfc <__sfp>:
 8003cfc:	b5f8      	push	{r3, r4, r5, r6, r7, lr}
 8003cfe:	4607      	mov	r7, r0
 8003d00:	f7ff ffac 	bl	8003c5c <__sfp_lock_acquire>
 8003d04:	4b1e      	ldr	r3, [pc, #120]	; (8003d80 <__sfp+0x84>)
 8003d06:	681e      	ldr	r6, [r3, #0]
 8003d08:	69b3      	ldr	r3, [r6, #24]
 8003d0a:	b913      	cbnz	r3, 8003d12 <__sfp+0x16>
 8003d0c:	4630      	mov	r0, r6
 8003d0e:	f7ff ffbd 	bl	8003c8c <__sinit>
 8003d12:	3648      	adds	r6, #72	; 0x48
 8003d14:	e9d6 3401 	ldrd	r3, r4, [r6, #4]
 8003d18:	3b01      	subs	r3, #1
 8003d1a:	d503      	bpl.n	8003d24 <__sfp+0x28>
 8003d1c:	6833      	ldr	r3, [r6, #0]
 8003d1e:	b30b      	cbz	r3, 8003d64 <__sfp+0x68>
 8003d20:	6836      	ldr	r6, [r6, #0]
 8003d22:	e7f7      	b.n	8003d14 <__sfp+0x18>
 8003d24:	f9b4 500c 	ldrsh.w	r5, [r4, #12]
 8003d28:	b9d5      	cbnz	r5, 8003d60 <__sfp+0x64>
 8003d2a:	4b16      	ldr	r3, [pc, #88]	; (8003d84 <__sfp+0x88>)
 8003d2c:	f104 0058 	add.w	r0, r4, #88	; 0x58
 8003d30:	60e3      	str	r3, [r4, #12]
 8003d32:	6665      	str	r5, [r4, #100]	; 0x64
 8003d34:	f000 f847 	bl	8003dc6 <__retarget_lock_init_recursive>
 8003d38:	f7ff ff96 	bl	8003c68 <__sfp_lock_release>
 8003d3c:	2208      	movs	r2, #8
 8003d3e:	4629      	mov	r1, r5
 8003d40:	e9c4 5501 	strd	r5, r5, [r4, #4]
 8003d44:	e9c4 5504 	strd	r5, r5, [r4, #16]
 8003d48:	6025      	str	r5, [r4, #0]
 8003d4a:	61a5      	str	r5, [r4, #24]
 8003d4c:	f104 005c 	add.w	r0, r4, #92	; 0x5c
 8003d50:	f7ff f968 	bl	8003024 <memset>
 8003d54:	e9c4 550d 	strd	r5, r5, [r4, #52]	; 0x34
 8003d58:	e9c4 5512 	strd	r5, r5, [r4, #72]	; 0x48
 8003d5c:	4620      	mov	r0, r4
 8003d5e:	bdf8      	pop	{r3, r4, r5, r6, r7, pc}
 8003d60:	3468      	adds	r4, #104	; 0x68
 8003d62:	e7d9      	b.n	8003d18 <__sfp+0x1c>
 8003d64:	2104      	movs	r1, #4
 8003d66:	4638      	mov	r0, r7
 8003d68:	f7ff ff62 	bl	8003c30 <__sfmoreglue>
 8003d6c:	4604      	mov	r4, r0
 8003d6e:	6030      	str	r0, [r6, #0]
 8003d70:	2800      	cmp	r0, #0
 8003d72:	d1d5      	bne.n	8003d20 <__sfp+0x24>
 8003d74:	f7ff ff78 	bl	8003c68 <__sfp_lock_release>
 8003d78:	230c      	movs	r3, #12
 8003d7a:	603b      	str	r3, [r7, #0]
 8003d7c:	e7ee      	b.n	8003d5c <__sfp+0x60>
 8003d7e:	bf00      	nop
 8003d80:	080044c4 	.word	0x080044c4
 8003d84:	ffff0001 	.word	0xffff0001

08003d88 <_fwalk_reent>:
 8003d88:	e92d 43f8 	stmdb	sp!, {r3, r4, r5, r6, r7, r8, r9, lr}
 8003d8c:	4606      	mov	r6, r0
 8003d8e:	4688      	mov	r8, r1
 8003d90:	2700      	movs	r7, #0
 8003d92:	f100 0448 	add.w	r4, r0, #72	; 0x48
 8003d96:	e9d4 9501 	ldrd	r9, r5, [r4, #4]
 8003d9a:	f1b9 0901 	subs.w	r9, r9, #1
 8003d9e:	d505      	bpl.n	8003dac <_fwalk_reent+0x24>
 8003da0:	6824      	ldr	r4, [r4, #0]
 8003da2:	2c00      	cmp	r4, #0
 8003da4:	d1f7      	bne.n	8003d96 <_fwalk_reent+0xe>
 8003da6:	4638      	mov	r0, r7
 8003da8:	e8bd 83f8 	ldmia.w	sp!, {r3, r4, r5, r6, r7, r8, r9, pc}
 8003dac:	89ab      	ldrh	r3, [r5, #12]
 8003dae:	2b01      	cmp	r3, #1
 8003db0:	d907      	bls.n	8003dc2 <_fwalk_reent+0x3a>
 8003db2:	f9b5 300e 	ldrsh.w	r3, [r5, #14]
 8003db6:	3301      	adds	r3, #1
 8003db8:	d003      	beq.n	8003dc2 <_fwalk_reent+0x3a>
 8003dba:	4629      	mov	r1, r5
 8003dbc:	4630      	mov	r0, r6
 8003dbe:	47c0      	blx	r8
 8003dc0:	4307      	orrs	r7, r0
 8003dc2:	3568      	adds	r5, #104	; 0x68
 8003dc4:	e7e9      	b.n	8003d9a <_fwalk_reent+0x12>

08003dc6 <__retarget_lock_init_recursive>:
 8003dc6:	4770      	bx	lr

08003dc8 <__retarget_lock_acquire_recursive>:
 8003dc8:	4770      	bx	lr

08003dca <__retarget_lock_release_recursive>:
 8003dca:	4770      	bx	lr

08003dcc <__swhatbuf_r>:
 8003dcc:	b570      	push	{r4, r5, r6, lr}
 8003dce:	460e      	mov	r6, r1
 8003dd0:	f9b1 100e 	ldrsh.w	r1, [r1, #14]
 8003dd4:	4614      	mov	r4, r2
 8003dd6:	2900      	cmp	r1, #0
 8003dd8:	461d      	mov	r5, r3
 8003dda:	b096      	sub	sp, #88	; 0x58
 8003ddc:	da07      	bge.n	8003dee <__swhatbuf_r+0x22>
 8003dde:	2300      	movs	r3, #0
 8003de0:	602b      	str	r3, [r5, #0]
 8003de2:	89b3      	ldrh	r3, [r6, #12]
 8003de4:	061a      	lsls	r2, r3, #24
 8003de6:	d410      	bmi.n	8003e0a <__swhatbuf_r+0x3e>
 8003de8:	f44f 6380 	mov.w	r3, #1024	; 0x400
 8003dec:	e00e      	b.n	8003e0c <__swhatbuf_r+0x40>
 8003dee:	466a      	mov	r2, sp
 8003df0:	f000 f914 	bl	800401c <_fstat_r>
 8003df4:	2800      	cmp	r0, #0
 8003df6:	dbf2      	blt.n	8003dde <__swhatbuf_r+0x12>
 8003df8:	9a01      	ldr	r2, [sp, #4]
 8003dfa:	f402 4270 	and.w	r2, r2, #61440	; 0xf000
 8003dfe:	f5a2 5300 	sub.w	r3, r2, #8192	; 0x2000
 8003e02:	425a      	negs	r2, r3
 8003e04:	415a      	adcs	r2, r3
 8003e06:	602a      	str	r2, [r5, #0]
 8003e08:	e7ee      	b.n	8003de8 <__swhatbuf_r+0x1c>
 8003e0a:	2340      	movs	r3, #64	; 0x40
 8003e0c:	2000      	movs	r0, #0
 8003e0e:	6023      	str	r3, [r4, #0]
 8003e10:	b016      	add	sp, #88	; 0x58
 8003e12:	bd70      	pop	{r4, r5, r6, pc}

08003e14 <__smakebuf_r>:
 8003e14:	898b      	ldrh	r3, [r1, #12]
 8003e16:	b573      	push	{r0, r1, r4, r5, r6, lr}
 8003e18:	079d      	lsls	r5, r3, #30
 8003e1a:	4606      	mov	r6, r0
 8003e1c:	460c      	mov	r4, r1
 8003e1e:	d507      	bpl.n	8003e30 <__smakebuf_r+0x1c>
 8003e20:	f104 0347 	add.w	r3, r4, #71	; 0x47
 8003e24:	6023      	str	r3, [r4, #0]
 8003e26:	6123      	str	r3, [r4, #16]
 8003e28:	2301      	movs	r3, #1
 8003e2a:	6163      	str	r3, [r4, #20]
 8003e2c:	b002      	add	sp, #8
 8003e2e:	bd70      	pop	{r4, r5, r6, pc}
 8003e30:	466a      	mov	r2, sp
 8003e32:	ab01      	add	r3, sp, #4
 8003e34:	f7ff ffca 	bl	8003dcc <__swhatbuf_r>
 8003e38:	9900      	ldr	r1, [sp, #0]
 8003e3a:	4605      	mov	r5, r0
 8003e3c:	4630      	mov	r0, r6
 8003e3e:	f7ff f9eb 	bl	8003218 <_malloc_r>
 8003e42:	b948      	cbnz	r0, 8003e58 <__smakebuf_r+0x44>
 8003e44:	f9b4 300c 	ldrsh.w	r3, [r4, #12]
 8003e48:	059a      	lsls	r2, r3, #22
 8003e4a:	d4ef      	bmi.n	8003e2c <__smakebuf_r+0x18>
 8003e4c:	f023 0303 	bic.w	r3, r3, #3
 8003e50:	f043 0302 	orr.w	r3, r3, #2
 8003e54:	81a3      	strh	r3, [r4, #12]
 8003e56:	e7e3      	b.n	8003e20 <__smakebuf_r+0xc>
 8003e58:	4b0d      	ldr	r3, [pc, #52]	; (8003e90 <__smakebuf_r+0x7c>)
 8003e5a:	62b3      	str	r3, [r6, #40]	; 0x28
 8003e5c:	89a3      	ldrh	r3, [r4, #12]
 8003e5e:	6020      	str	r0, [r4, #0]
 8003e60:	f043 0380 	orr.w	r3, r3, #128	; 0x80
 8003e64:	81a3      	strh	r3, [r4, #12]
 8003e66:	9b00      	ldr	r3, [sp, #0]
 8003e68:	6120      	str	r0, [r4, #16]
 8003e6a:	6163      	str	r3, [r4, #20]
 8003e6c:	9b01      	ldr	r3, [sp, #4]
 8003e6e:	b15b      	cbz	r3, 8003e88 <__smakebuf_r+0x74>
 8003e70:	4630      	mov	r0, r6
 8003e72:	f9b4 100e 	ldrsh.w	r1, [r4, #14]
 8003e76:	f000 f8e3 	bl	8004040 <_isatty_r>
 8003e7a:	b128      	cbz	r0, 8003e88 <__smakebuf_r+0x74>
 8003e7c:	89a3      	ldrh	r3, [r4, #12]
 8003e7e:	f023 0303 	bic.w	r3, r3, #3
 8003e82:	f043 0301 	orr.w	r3, r3, #1
 8003e86:	81a3      	strh	r3, [r4, #12]
 8003e88:	89a0      	ldrh	r0, [r4, #12]
 8003e8a:	4305      	orrs	r5, r0
 8003e8c:	81a5      	strh	r5, [r4, #12]
 8003e8e:	e7cd      	b.n	8003e2c <__smakebuf_r+0x18>
 8003e90:	08003c25 	.word	0x08003c25

08003e94 <memchr>:
 8003e94:	4603      	mov	r3, r0
 8003e96:	b510      	push	{r4, lr}
 8003e98:	b2c9      	uxtb	r1, r1
 8003e9a:	4402      	add	r2, r0
 8003e9c:	4293      	cmp	r3, r2
 8003e9e:	4618      	mov	r0, r3
 8003ea0:	d101      	bne.n	8003ea6 <memchr+0x12>
 8003ea2:	2000      	movs	r0, #0
 8003ea4:	e003      	b.n	8003eae <memchr+0x1a>
 8003ea6:	7804      	ldrb	r4, [r0, #0]
 8003ea8:	3301      	adds	r3, #1
 8003eaa:	428c      	cmp	r4, r1
 8003eac:	d1f6      	bne.n	8003e9c <memchr+0x8>
 8003eae:	bd10      	pop	{r4, pc}

08003eb0 <__malloc_lock>:
 8003eb0:	4801      	ldr	r0, [pc, #4]	; (8003eb8 <__malloc_lock+0x8>)
 8003eb2:	f7ff bf89 	b.w	8003dc8 <__retarget_lock_acquire_recursive>
 8003eb6:	bf00      	nop
 8003eb8:	200002ac 	.word	0x200002ac

08003ebc <__malloc_unlock>:
 8003ebc:	4801      	ldr	r0, [pc, #4]	; (8003ec4 <__malloc_unlock+0x8>)
 8003ebe:	f7ff bf84 	b.w	8003dca <__retarget_lock_release_recursive>
 8003ec2:	bf00      	nop
 8003ec4:	200002ac 	.word	0x200002ac

08003ec8 <_raise_r>:
 8003ec8:	291f      	cmp	r1, #31
 8003eca:	b538      	push	{r3, r4, r5, lr}
 8003ecc:	4604      	mov	r4, r0
 8003ece:	460d      	mov	r5, r1
 8003ed0:	d904      	bls.n	8003edc <_raise_r+0x14>
 8003ed2:	2316      	movs	r3, #22
 8003ed4:	6003      	str	r3, [r0, #0]
 8003ed6:	f04f 30ff 	mov.w	r0, #4294967295
 8003eda:	bd38      	pop	{r3, r4, r5, pc}
 8003edc:	6c42      	ldr	r2, [r0, #68]	; 0x44
 8003ede:	b112      	cbz	r2, 8003ee6 <_raise_r+0x1e>
 8003ee0:	f852 3021 	ldr.w	r3, [r2, r1, lsl #2]
 8003ee4:	b94b      	cbnz	r3, 8003efa <_raise_r+0x32>
 8003ee6:	4620      	mov	r0, r4
 8003ee8:	f000 f830 	bl	8003f4c <_getpid_r>
 8003eec:	462a      	mov	r2, r5
 8003eee:	4601      	mov	r1, r0
 8003ef0:	4620      	mov	r0, r4
 8003ef2:	e8bd 4038 	ldmia.w	sp!, {r3, r4, r5, lr}
 8003ef6:	f000 b817 	b.w	8003f28 <_kill_r>
 8003efa:	2b01      	cmp	r3, #1
 8003efc:	d00a      	beq.n	8003f14 <_raise_r+0x4c>
 8003efe:	1c59      	adds	r1, r3, #1
 8003f00:	d103      	bne.n	8003f0a <_raise_r+0x42>
 8003f02:	2316      	movs	r3, #22
 8003f04:	6003      	str	r3, [r0, #0]
 8003f06:	2001      	movs	r0, #1
 8003f08:	e7e7      	b.n	8003eda <_raise_r+0x12>
 8003f0a:	2400      	movs	r4, #0
 8003f0c:	4628      	mov	r0, r5
 8003f0e:	f842 4025 	str.w	r4, [r2, r5, lsl #2]
 8003f12:	4798      	blx	r3
 8003f14:	2000      	movs	r0, #0
 8003f16:	e7e0      	b.n	8003eda <_raise_r+0x12>

08003f18 <raise>:
 8003f18:	4b02      	ldr	r3, [pc, #8]	; (8003f24 <raise+0xc>)
 8003f1a:	4601      	mov	r1, r0
 8003f1c:	6818      	ldr	r0, [r3, #0]
 8003f1e:	f7ff bfd3 	b.w	8003ec8 <_raise_r>
 8003f22:	bf00      	nop
 8003f24:	20000074 	.word	0x20000074

08003f28 <_kill_r>:
 8003f28:	b538      	push	{r3, r4, r5, lr}
 8003f2a:	2300      	movs	r3, #0
 8003f2c:	4d06      	ldr	r5, [pc, #24]	; (8003f48 <_kill_r+0x20>)
 8003f2e:	4604      	mov	r4, r0
 8003f30:	4608      	mov	r0, r1
 8003f32:	4611      	mov	r1, r2
 8003f34:	602b      	str	r3, [r5, #0]
 8003f36:	f000 f8d7 	bl	80040e8 <_kill>
 8003f3a:	1c43      	adds	r3, r0, #1
 8003f3c:	d102      	bne.n	8003f44 <_kill_r+0x1c>
 8003f3e:	682b      	ldr	r3, [r5, #0]
 8003f40:	b103      	cbz	r3, 8003f44 <_kill_r+0x1c>
 8003f42:	6023      	str	r3, [r4, #0]
 8003f44:	bd38      	pop	{r3, r4, r5, pc}
 8003f46:	bf00      	nop
 8003f48:	200002b4 	.word	0x200002b4

08003f4c <_getpid_r>:
 8003f4c:	f000 b8bc 	b.w	80040c8 <_getpid>

08003f50 <__sread>:
 8003f50:	b510      	push	{r4, lr}
 8003f52:	460c      	mov	r4, r1
 8003f54:	f9b1 100e 	ldrsh.w	r1, [r1, #14]
 8003f58:	f000 f894 	bl	8004084 <_read_r>
 8003f5c:	2800      	cmp	r0, #0
 8003f5e:	bfab      	itete	ge
 8003f60:	6d63      	ldrge	r3, [r4, #84]	; 0x54
 8003f62:	89a3      	ldrhlt	r3, [r4, #12]
 8003f64:	181b      	addge	r3, r3, r0
 8003f66:	f423 5380 	biclt.w	r3, r3, #4096	; 0x1000
 8003f6a:	bfac      	ite	ge
 8003f6c:	6563      	strge	r3, [r4, #84]	; 0x54
 8003f6e:	81a3      	strhlt	r3, [r4, #12]
 8003f70:	bd10      	pop	{r4, pc}

08003f72 <__swrite>:
 8003f72:	e92d 41f0 	stmdb	sp!, {r4, r5, r6, r7, r8, lr}
 8003f76:	461f      	mov	r7, r3
 8003f78:	898b      	ldrh	r3, [r1, #12]
 8003f7a:	4605      	mov	r5, r0
 8003f7c:	05db      	lsls	r3, r3, #23
 8003f7e:	460c      	mov	r4, r1
 8003f80:	4616      	mov	r6, r2
 8003f82:	d505      	bpl.n	8003f90 <__swrite+0x1e>
 8003f84:	2302      	movs	r3, #2
 8003f86:	2200      	movs	r2, #0
 8003f88:	f9b1 100e 	ldrsh.w	r1, [r1, #14]
 8003f8c:	f000 f868 	bl	8004060 <_lseek_r>
 8003f90:	89a3      	ldrh	r3, [r4, #12]
 8003f92:	4632      	mov	r2, r6
 8003f94:	f423 5380 	bic.w	r3, r3, #4096	; 0x1000
 8003f98:	81a3      	strh	r3, [r4, #12]
 8003f9a:	4628      	mov	r0, r5
 8003f9c:	463b      	mov	r3, r7
 8003f9e:	f9b4 100e 	ldrsh.w	r1, [r4, #14]
 8003fa2:	e8bd 41f0 	ldmia.w	sp!, {r4, r5, r6, r7, r8, lr}
 8003fa6:	f000 b817 	b.w	8003fd8 <_write_r>

08003faa <__sseek>:
 8003faa:	b510      	push	{r4, lr}
 8003fac:	460c      	mov	r4, r1
 8003fae:	f9b1 100e 	ldrsh.w	r1, [r1, #14]
 8003fb2:	f000 f855 	bl	8004060 <_lseek_r>
 8003fb6:	1c43      	adds	r3, r0, #1
 8003fb8:	89a3      	ldrh	r3, [r4, #12]
 8003fba:	bf15      	itete	ne
 8003fbc:	6560      	strne	r0, [r4, #84]	; 0x54
 8003fbe:	f423 5380 	biceq.w	r3, r3, #4096	; 0x1000
 8003fc2:	f443 5380 	orrne.w	r3, r3, #4096	; 0x1000
 8003fc6:	81a3      	strheq	r3, [r4, #12]
 8003fc8:	bf18      	it	ne
 8003fca:	81a3      	strhne	r3, [r4, #12]
 8003fcc:	bd10      	pop	{r4, pc}

08003fce <__sclose>:
 8003fce:	f9b1 100e 	ldrsh.w	r1, [r1, #14]
 8003fd2:	f000 b813 	b.w	8003ffc <_close_r>
	...

08003fd8 <_write_r>:
 8003fd8:	b538      	push	{r3, r4, r5, lr}
 8003fda:	4604      	mov	r4, r0
 8003fdc:	4608      	mov	r0, r1
 8003fde:	4611      	mov	r1, r2
 8003fe0:	2200      	movs	r2, #0
 8003fe2:	4d05      	ldr	r5, [pc, #20]	; (8003ff8 <_write_r+0x20>)
 8003fe4:	602a      	str	r2, [r5, #0]
 8003fe6:	461a      	mov	r2, r3
 8003fe8:	f000 f8a4 	bl	8004134 <_write>
 8003fec:	1c43      	adds	r3, r0, #1
 8003fee:	d102      	bne.n	8003ff6 <_write_r+0x1e>
 8003ff0:	682b      	ldr	r3, [r5, #0]
 8003ff2:	b103      	cbz	r3, 8003ff6 <_write_r+0x1e>
 8003ff4:	6023      	str	r3, [r4, #0]
 8003ff6:	bd38      	pop	{r3, r4, r5, pc}
 8003ff8:	200002b4 	.word	0x200002b4

08003ffc <_close_r>:
 8003ffc:	b538      	push	{r3, r4, r5, lr}
 8003ffe:	2300      	movs	r3, #0
 8004000:	4d05      	ldr	r5, [pc, #20]	; (8004018 <_close_r+0x1c>)
 8004002:	4604      	mov	r4, r0
 8004004:	4608      	mov	r0, r1
 8004006:	602b      	str	r3, [r5, #0]
 8004008:	f000 f84e 	bl	80040a8 <_close>
 800400c:	1c43      	adds	r3, r0, #1
 800400e:	d102      	bne.n	8004016 <_close_r+0x1a>
 8004010:	682b      	ldr	r3, [r5, #0]
 8004012:	b103      	cbz	r3, 8004016 <_close_r+0x1a>
 8004014:	6023      	str	r3, [r4, #0]
 8004016:	bd38      	pop	{r3, r4, r5, pc}
 8004018:	200002b4 	.word	0x200002b4

0800401c <_fstat_r>:
 800401c:	b538      	push	{r3, r4, r5, lr}
 800401e:	2300      	movs	r3, #0
 8004020:	4d06      	ldr	r5, [pc, #24]	; (800403c <_fstat_r+0x20>)
 8004022:	4604      	mov	r4, r0
 8004024:	4608      	mov	r0, r1
 8004026:	4611      	mov	r1, r2
 8004028:	602b      	str	r3, [r5, #0]
 800402a:	f000 f845 	bl	80040b8 <_fstat>
 800402e:	1c43      	adds	r3, r0, #1
 8004030:	d102      	bne.n	8004038 <_fstat_r+0x1c>
 8004032:	682b      	ldr	r3, [r5, #0]
 8004034:	b103      	cbz	r3, 8004038 <_fstat_r+0x1c>
 8004036:	6023      	str	r3, [r4, #0]
 8004038:	bd38      	pop	{r3, r4, r5, pc}
 800403a:	bf00      	nop
 800403c:	200002b4 	.word	0x200002b4

08004040 <_isatty_r>:
 8004040:	b538      	push	{r3, r4, r5, lr}
 8004042:	2300      	movs	r3, #0
 8004044:	4d05      	ldr	r5, [pc, #20]	; (800405c <_isatty_r+0x1c>)
 8004046:	4604      	mov	r4, r0
 8004048:	4608      	mov	r0, r1
 800404a:	602b      	str	r3, [r5, #0]
 800404c:	f000 f844 	bl	80040d8 <_isatty>
 8004050:	1c43      	adds	r3, r0, #1
 8004052:	d102      	bne.n	800405a <_isatty_r+0x1a>
 8004054:	682b      	ldr	r3, [r5, #0]
 8004056:	b103      	cbz	r3, 800405a <_isatty_r+0x1a>
 8004058:	6023      	str	r3, [r4, #0]
 800405a:	bd38      	pop	{r3, r4, r5, pc}
 800405c:	200002b4 	.word	0x200002b4

08004060 <_lseek_r>:
 8004060:	b538      	push	{r3, r4, r5, lr}
 8004062:	4604      	mov	r4, r0
 8004064:	4608      	mov	r0, r1
 8004066:	4611      	mov	r1, r2
 8004068:	2200      	movs	r2, #0
 800406a:	4d05      	ldr	r5, [pc, #20]	; (8004080 <_lseek_r+0x20>)
 800406c:	602a      	str	r2, [r5, #0]
 800406e:	461a      	mov	r2, r3
 8004070:	f000 f842 	bl	80040f8 <_lseek>
 8004074:	1c43      	adds	r3, r0, #1
 8004076:	d102      	bne.n	800407e <_lseek_r+0x1e>
 8004078:	682b      	ldr	r3, [r5, #0]
 800407a:	b103      	cbz	r3, 800407e <_lseek_r+0x1e>
 800407c:	6023      	str	r3, [r4, #0]
 800407e:	bd38      	pop	{r3, r4, r5, pc}
 8004080:	200002b4 	.word	0x200002b4

08004084 <_read_r>:
 8004084:	b538      	push	{r3, r4, r5, lr}
 8004086:	4604      	mov	r4, r0
 8004088:	4608      	mov	r0, r1
 800408a:	4611      	mov	r1, r2
 800408c:	2200      	movs	r2, #0
 800408e:	4d05      	ldr	r5, [pc, #20]	; (80040a4 <_read_r+0x20>)
 8004090:	602a      	str	r2, [r5, #0]
 8004092:	461a      	mov	r2, r3
 8004094:	f000 f838 	bl	8004108 <_read>
 8004098:	1c43      	adds	r3, r0, #1
 800409a:	d102      	bne.n	80040a2 <_read_r+0x1e>
 800409c:	682b      	ldr	r3, [r5, #0]
 800409e:	b103      	cbz	r3, 80040a2 <_read_r+0x1e>
 80040a0:	6023      	str	r3, [r4, #0]
 80040a2:	bd38      	pop	{r3, r4, r5, pc}
 80040a4:	200002b4 	.word	0x200002b4

080040a8 <_close>:
 80040a8:	2258      	movs	r2, #88	; 0x58
 80040aa:	4b02      	ldr	r3, [pc, #8]	; (80040b4 <_close+0xc>)
 80040ac:	f04f 30ff 	mov.w	r0, #4294967295
 80040b0:	601a      	str	r2, [r3, #0]
 80040b2:	4770      	bx	lr
 80040b4:	200002b4 	.word	0x200002b4

080040b8 <_fstat>:
 80040b8:	2258      	movs	r2, #88	; 0x58
 80040ba:	4b02      	ldr	r3, [pc, #8]	; (80040c4 <_fstat+0xc>)
 80040bc:	f04f 30ff 	mov.w	r0, #4294967295
 80040c0:	601a      	str	r2, [r3, #0]
 80040c2:	4770      	bx	lr
 80040c4:	200002b4 	.word	0x200002b4

080040c8 <_getpid>:
 80040c8:	2258      	movs	r2, #88	; 0x58
 80040ca:	4b02      	ldr	r3, [pc, #8]	; (80040d4 <_getpid+0xc>)
 80040cc:	f04f 30ff 	mov.w	r0, #4294967295
 80040d0:	601a      	str	r2, [r3, #0]
 80040d2:	4770      	bx	lr
 80040d4:	200002b4 	.word	0x200002b4

080040d8 <_isatty>:
 80040d8:	2258      	movs	r2, #88	; 0x58
 80040da:	4b02      	ldr	r3, [pc, #8]	; (80040e4 <_isatty+0xc>)
 80040dc:	2000      	movs	r0, #0
 80040de:	601a      	str	r2, [r3, #0]
 80040e0:	4770      	bx	lr
 80040e2:	bf00      	nop
 80040e4:	200002b4 	.word	0x200002b4

080040e8 <_kill>:
 80040e8:	2258      	movs	r2, #88	; 0x58
 80040ea:	4b02      	ldr	r3, [pc, #8]	; (80040f4 <_kill+0xc>)
 80040ec:	f04f 30ff 	mov.w	r0, #4294967295
 80040f0:	601a      	str	r2, [r3, #0]
 80040f2:	4770      	bx	lr
 80040f4:	200002b4 	.word	0x200002b4

080040f8 <_lseek>:
 80040f8:	2258      	movs	r2, #88	; 0x58
 80040fa:	4b02      	ldr	r3, [pc, #8]	; (8004104 <_lseek+0xc>)
 80040fc:	f04f 30ff 	mov.w	r0, #4294967295
 8004100:	601a      	str	r2, [r3, #0]
 8004102:	4770      	bx	lr
 8004104:	200002b4 	.word	0x200002b4

08004108 <_read>:
 8004108:	2258      	movs	r2, #88	; 0x58
 800410a:	4b02      	ldr	r3, [pc, #8]	; (8004114 <_read+0xc>)
 800410c:	f04f 30ff 	mov.w	r0, #4294967295
 8004110:	601a      	str	r2, [r3, #0]
 8004112:	4770      	bx	lr
 8004114:	200002b4 	.word	0x200002b4

08004118 <_sbrk>:
 8004118:	4b04      	ldr	r3, [pc, #16]	; (800412c <_sbrk+0x14>)
 800411a:	4602      	mov	r2, r0
 800411c:	6819      	ldr	r1, [r3, #0]
 800411e:	b909      	cbnz	r1, 8004124 <_sbrk+0xc>
 8004120:	4903      	ldr	r1, [pc, #12]	; (8004130 <_sbrk+0x18>)
 8004122:	6019      	str	r1, [r3, #0]
 8004124:	6818      	ldr	r0, [r3, #0]
 8004126:	4402      	add	r2, r0
 8004128:	601a      	str	r2, [r3, #0]
 800412a:	4770      	bx	lr
 800412c:	200002a0 	.word	0x200002a0
 8004130:	200002b8 	.word	0x200002b8

08004134 <_write>:
 8004134:	2258      	movs	r2, #88	; 0x58
 8004136:	4b02      	ldr	r3, [pc, #8]	; (8004140 <_write+0xc>)
 8004138:	f04f 30ff 	mov.w	r0, #4294967295
 800413c:	601a      	str	r2, [r3, #0]
 800413e:	4770      	bx	lr
 8004140:	200002b4 	.word	0x200002b4

08004144 <_exit>:
 8004144:	e7fe      	b.n	8004144 <_exit>
	...

08004148 <_init>:
 8004148:	b5f8      	push	{r3, r4, r5, r6, r7, lr}
 800414a:	bf00      	nop
 800414c:	bcf8      	pop	{r3, r4, r5, r6, r7}
 800414e:	bc08      	pop	{r3}
 8004150:	469e      	mov	lr, r3
 8004152:	4770      	bx	lr

08004154 <_fini>:
 8004154:	b5f8      	push	{r3, r4, r5, r6, r7, lr}
 8004156:	bf00      	nop
 8004158:	bcf8      	pop	{r3, r4, r5, r6, r7}
 800415a:	bc08      	pop	{r3}
 800415c:	469e      	mov	lr, r3
 800415e:	4770      	bx	lr
